(dp1
S'popular'
p2
(lp3
Vkatyperry
p4
aVjustinbieber
p5
aVtaylorswift13
p6
aVBarackObama
p7
aVYouTube
p8
aVrihanna
p9
aVTheEllenShow
p10
aVladygaga
p11
aVjtimberlake
p12
aVtwitter
p13
aVbritneyspears
p14
aVKimKardashian
p15
aVselenagomez
p16
aVCristiano
p17
aVinstagram
p18
aVjimmyfallon
p19
aVArianaGrande
p20
aVcnnbrk
p21
aVshakira
p22
aVddlovato
p23
aVJLo
p24
aVOprah
p25
aVDrake
p26
aVKingJames
p27
aVMileyCyrus
p28
aVKevinHart4real
p29
aVBillGates
p30
aVonedirection
p31
aVespn
p32
aVHarry_Styles
p33
aVPink
p34
aVSportsCenter
p35
aVnytimes
p36
aVLilTunechi
p37
aVAdele
p38
aVwizkhalifa
p39
aVBrunoMars
p40
aVNiallOfficial
p41
aVCNN
p42
aVActuallyNPH
p43
aVKAKA
p44
aVdanieltosh
p45
aValiciakeys
p46
aVReal_Liam_Payne
p47
aVkanyewest
p48
aVBBCBreaking
p49
aVLouis_Tomlinson
p50
aVpitbull
p51
aVneymarjr
p52
aVEmWatson
p53
aVNBA
p54
aVSrBachchan
p55
aVConanOBrien
p56
aVNICKIMINAJ
p57
aVEminem
p58
aVkhloekardashian
p59
aVdavidguetta
p60
aVAvrilLavigne
p61
aVnarendramodi
p62
aViamsrk
p63
aVkourtneykardash
p64
aVrealmadrid
p65
aVzaynmalik
p66
aVNFL
p67
aVaplusk
p68
aVBeingSalmanKhan
p69
aVaamir_khan
p70
aVFCBarcelona
p71
aVblakeshelton
p72
aVKendallJenner
p73
aVcoldplay
p74
aVedsheeran
p75
aVvine
p76
aVchrisbrown
p77
aVMariahCarey
p78
aVxtina
p79
aVNASA
p80
aVKylieJenner
p81
aVTwitterEspanol
p82
aVagnezmo
p83
aVJimCarrey
p84
aVLeoDiCaprio
p85
aVMohamadAlarefe
p86
aVgoogle
p87
aVivetesangalo
p88
aVdeepikapadukone
p89
aVBeyonce
p90
aVRyanSeacrest
p91
aVBBCWorld
p92
aVTheEconomist
p93
aVfacebook
p94
aVSnoopDogg
p95
aVshugairi
p96
aVTwitterSports
p97
aVpriyankachopra
p98
aViHrithik
p99
aVAlejandroSanz
p100
aVMTV
p101
aVParisHilton
p102
aVKDTrey5
p103
asS'christian'
p104
(lp105
S'hillsongunited'
p106
aS'lecrae'
p107
aS'TripLee116'
p108
aS'michaelwsmith'
p109
aS'JimmyNeedham'
p110
aS'kirkfranklin'
p111
aS'therealtobymac'
p112
aS'joyike'
p113
aS'ihoughton'
p114
aS'amygrant'
p115
aS'switchfoot'
p116
aS'SocialXClub'
p117
aS'itsbrittnicole'
p118
aS'gungormusic'
p119
asS'rap'
p120
(lp121
S'kendricklamar'
p122
aS'kanyewest'
p123
aS'LilTunechi'
p124
aS'JColeNC'
p125
aS'Wale'
p126
aS'LILBTHEBASEDGOD'
p127
aS'gucci1017'
p128
aS'2chainz'
p129
aS'ChiefKeef'
p130
aS'common'
p131
aS'talibkweli'
p132
aS'Nas'
p133
aS'djkhaled'
p134
aS'wizkhalifa'
p135
aS'MacMiller'
p136
aS'rickyrozay'
p137
aS'joeyBADASS_'
p138
aS'ScHoolBoyQ'
p139
aS'SnoopDogg'
p140
aS'chancetherapper'
p141
aS'earlxsweat'
p142
aS'Raekwon'
p143
aS'GhostfaceKillah'
p144
aS'xdannyxbrownx'
p145
aS'BIGKRIT'
p146
asS'pop'
p147
(lp148
S'ladygaga'
p149
aS'katyperry'
p150
aS'macklemore'
p151
aS'taylorswift13'
p152
aS'justinbieber'
p153
aS'onedirection'
p154
aS'NICKIMINAJ'
p155
aS'MileyCyrus'
p156
aS'jtimberlake'
p157
aS'BrunoMars'
p158
aS'xtina'
p159
aS'selenagomez'
p160
aS'MariahCarey'
p161
aS'Pink'
p162
aS'rihanna'
p163
aS'maroon5'
p164
asS'comedians'
p165
(lp166
S'robdelaney'
p167
aS'kenjennings'
p168
aS'JerrySeinfeld'
p169
aS'mindykaling'
p170
aS'jimmyfallon'
p171
aS'kristenschaaled'
p172
aS'rainnwilson'
p173
aS'rejectedjokes'
p174
aS'conanobrien'
p175
aS'PFTompkins'
p176
aS'SarahKSilverman'
p177
aS'EugeneMirman'
p178
aS'SteveMartinToGo'
p179
aS'StephenAtHome'
p180
aS'nathanfielder'
p181
aS'sethmeyers'
p182
as.