(lp1
V<HANDLE> Herb refer to me Judi We met todai the Playhous See you tonight for the show )
p2
aVSick My tummi realli realli ach Uh (
p3
aViTunes1
p4
aV<HANDLE> have fun bro
p5
aV<HANDLE> kinda but it could have been an epic night if i didnt have to babysitwhat ar you still do up
p6
aVyou know im no good
p7
aS''
aV<HANDLE> lo son
p8
aVBrais short rib in a beet chipolt sauc try it with on of our new Malbec by the glass
p9
aV<HANDLE> im wait for that appl store eri mean l Pod Boutiqu you know with no DRM caus otherwis theyll burn your car
p10
aVA Few Cloud and <NUMBER> F at ChicagoOhar IL Wind ar from the Southwest at <NUMBER> gust to <NUMBER> MPH (9 gust to <URL>
p11
aV<HANDLE> MV ( Im realli look forward to <HASHTAG> Oh there wa some good bullrid on the tube thi weekend
p12
aV<HANDLE> ye im in MD now just graduat collegetri to move to NYC within a year is char go on tour who is brie a 2nd child
p13
aVZZZZZzzzzzzzzZZZZZZZzzzzzzzzzzZZZZZZZZZzz at work
p14
aVDikira lg party_RT <HANDLE> Wiiiiw gotcha <HANDLE> <HANDLE> <HANDLE> and hazbi <URL>
p15
aV<HANDLE> manda teu msn no DM
p16
aVRT <HANDLE> <NUMBER> hr of autocad ahead take that ani dai over mind <NUMBER> kid
p17
aVRecent snap photo <URL>
p18
aV<HANDLE> zaterdagochtend zijn we in Tilburg Ik moet weer getrimd worden en dan naar Dordrecht om de messen weer te laten slijpen
p19
aVGo make some nois RT <HANDLE> Off to Il Lido for lunch with <HANDLE> Singapor too quiet dure CNY
p20
aV<HANDLE> <HANDLE> I have the bone of a brontosauru Noth gonna snap these puppi
p21
aV<HANDLE> my summer semest start todai Not until 4pm tho
p22
aVLook for a SPA retreat in Thailand<URL>
p23
aV<HANDLE> WHERE DA PARTY
p24
aS''
aVmm como que me siento mal S noo no me quiero enfermarrrr
p25
aV<HANDLE> aaaaaaaaaooow that might just be the move
p26
aVtornatoalla ricerca di un libretto di assegni
p27
aVIn Pink video FunHous as she danc in the desert her blond hair slowli turn black at the tipsAWESOME
p28
aVAbout to try <HANDLE> s mom cook Heard it legit
p29
aV<HANDLE> Desculpa ma eu procureui no googl quem Brittnei Murphi
p30
aV<HANDLE> yo se q lee a mi hermana gtgt <HANDLE> cuando te escrib su lokeraaa ahaha siertooo
p31
aV<HANDLE> Good morn sexi thang
p32
aVJust over <NUMBER> hour left to purchas a Pot O Gold Raffl ticket Purchas onlin at wwwthegenesisfundorg or call us <URL>
p33
aV<HANDLE>
p34
aV<HANDLE> DING and make me that cool head thing
p35
aV<HANDLE> ye i think
p36
aVACORN Advanc in New York Ti to Absente Ballot Fraud <URL> <HASHTAG>
p37
aV<HASHTAG> <HASHTAG> Kenneth Starr introduc as Baylor presid Baylor Univers new presid Kenneth Starr said Tu <URL>
p38
aV<URL> <NUMBER> 024016
p39
aVExchang of shoe
p40
aVI think I am in love with the Tokina 1116mm So sexi
p41
aVPhoto at earwax Ill have what he have <URL>
p42
aVLa Rueta a Son Gotleu sota el lema Naturalesa i medi ambient <URL>
p43
aV<HANDLE> Oh Man Sue em
p44
aVi go to collag tomrow i have a exami hope i do wellthen thi mum go to collagehug achiv
p45
aV<HANDLE> THANK U HUNN
p46
aVthat bzzz on arthur2de is annoi XD
p47
aVFord Offere 3GConnected Dashboard Comput in <NUMBER> Truck Car Ford continu their push for techfriend <URL>
p48
aVMultiplayerit Audio Podcast <HASHTAG> I videogiochi sono la nostra droga <URL>
p49
aV<HANDLE> I have no experi with Ebai I think contact your buyer is just a normal wai to deal with your busi
p50
aVToni Romo Reveal Jessica Simpson Date Night Detail (source ET Online) <URL>
p51
aVTime for small group then meet with Kurt and talk about life )
p52
aVAnd though i know i should be good
p53
aVI am listen to Adam Lambert on SIRIUS onlin He is DJ and get to hear hi song from FYE
p54
aVjam lima
p55
aVFuturo de Riberi no Bayern ser decidido em maro Concordamo em no reunir no ms que vem para tomarmo uma dec <URL>
p56
aV<HANDLE>
p57
aV<HANDLE> Hmmm i think Mandi should total be you OMG ye that would be better and I can be a blond and be Milei n u should be Zac lol
p58
aVNow Plai <HASHTAG> ScottA Long Walk
p59
aS''
aVLive Like Were DyingKri Allen
p60
aVNice to meet you Hondura vs US hardli a replai The Associat Press <URL>
p61
aV<HANDLE> The Mkt is correct nowTim Mkt doesnt workU can use09March low as a referencelook 4chart similaritiesMonei hide
p62
aVHello world Im so peppi 2day <NUMBER> some unknown reason
p63
aVSMIDIG SOM EN KATT
p64
aVsama sama sabet tayaang mauh RT <HANDLE> <HANDLE> <HANDLE> <HANDLE> happi new year sayang D
p65
aVwere at <HANDLE> it a bunch of basebal topic appar which is fine with me becaus well tear that up
p66
aVNew blog post How To Watch NCAA Sport Game Online For Free <URL>
p67
aV<HANDLE> i wa blub like a babi last night when i watch that
p68
aVMorn Yall I kinda got up late oh well
p69
aV<HANDLE> remind me to tell u ) xx
p70
aVThe poop is in the puddi
p71
aV<HANDLE> cant wait to watch love actual
p72
aV<HANDLE> iylumayanlahdari tgl 10Febampir sblnlmyn bwt ngura duit gwhahaha
p73
aV<HANDLE> XHILL OUTKORREKTION MY HOODLUM FRIENDS UR BESTIESHA HADO DAT EVERYWHERE LOLOLOL
p74
aVhaha you make itt soo obvious(
p75
aVis listen to Your New Twin Size Bed by Death Cab For Cuti from Narrow Stair <HASHTAG><HASHTAG><HASHTAG>Pr
p76
aV<HANDLE>
p77
aV<HANDLE> leav her alon
p78
aVOk i kept see twit about david cook and the script and wa think well that a shitti band name
p79
aVRT <HANDLE> Todai is nation cupcak dai What is your favorit <URL>Isnt everi dai cupcak dai
p80
aS''
aV<HANDLE> the import of the network of peopl thei follow Twitter (with no network) is useless
p81
aVI REALLY forgot what it like to wake up at <NUMBER> in the morn
p82
aV<HANDLE> preciso falar com vcc
p83
aV<HANDLE> If you think we have treat black peopl fairli throughout histori Your fuck nut <HASHTAG> Beck
p84
aVim sick and tire of jugglin and still cant find the <NUMBER> when i find that perfect shawti i swear that im done
p85
aV<HANDLE> yeahI just am not feel it with the other stori I am scrambl for anoth stori line
p86
aV<HANDLE> that gun charg from 07
p87
aV<HANDLE> im wear hollist jean todai xD
p88
aVAl Haig fmr Secretari of State of cours
p89
aVnoth
p90
aVRT <HANDLE> Tai Shan will be go to China in <NUMBER> Well miss him lot He done so much for panda conserv httpsnurlc
p91
aVRT <HANDLE> A STRAIGHT FORECAST Race Profil name 1st and 2nd at Leicest <NUMBER> todai at <URL>
p92
aV<HANDLE> Get a whip and well ALL GET TATTED
p93
aV<HANDLE> sound like a great night full of great food
p94
aVi love parent control it so stage and cheesi guilti pleasur
p95
aVming and ipod
p96
aVUS urg alli to send trainer to Afghanistan AFP <URL>
p97
aV<HANDLE> Me too I didnt realiz that it wa all Taec and then SNSD XD
p98
aS''
aV<HANDLE> hahaha danni and me ar down to go
p99
aV<HANDLE> YE hun x
p100
aVI am see peopl like you everywher
p101
aVNew blog post ltbgtMusic In Control FearFM PresentltBgt DJ UNIQUE (290909) <URL>
p102
aVes
p103
aVThat alwai a good thing Lol <HANDLE>
p104
aVat work cant wait to get outta here Im outsid on a smoke break n it about to rainI see the cloud com been rain all week
p105
aS''
aVPasti krn terlalu keterlaluannya kangen sm akuRT <HANDLE> dua kotak susu ultra milk sudah ludeessgatau krn setress apa dasarnya maruk
p106
aV<HANDLE> im super mad at you you let me down at least you can do is text me back
p107
aV<HANDLE> NOTHIN BESIDES CLASS
p108
aVMOONGIFT iPhoneiPod TouchMov <URL>
p109
aV500 parliamentari vote reciev after result announc Mvume Dandala to be presid <HASHTAG>
p110
aVArrgh thi is why I dont like to sign on to MSN No thank you I do NOT want to visit your room
p111
aV<HANDLE> awwh why sweeti Im good D all my friend ar aliv I thought on di
p112
aV<HANDLE> endnot export for grass <URL> (but afraid there no doi or url in there ) )
p113
aVPeculiar of our nation exist even then bt evry1 had high toler RT <HANDLE> What Id give to be in the dai led by TunDrIsmail
p114
aVQuando vou escolh um film p assistir prefiro aquel com enredo bem desenvolvido trabalhadoAmo os clssicosGosto de obra imortai
p115
aVUS
p116
aVwatch <HASHTAG> final
p117
aVWhere the LAAAAAA
p118
aV<HANDLE> rais hand woooohoooo right hereee
p119
aVOk so an updat I mai have been prematur in all my shove it up your ass involv tweet Turn out drunk peopl sometim exagger
p120
aVUHUUUU DE VIRADA MAIS GOSTOSO
p121
aVPEOPLE ARE DUMB THE END
p122
aV<HANDLE> thank for the Rag Consig love we love you all too
p123
aV<HANDLE> Gran Open
p124
aV<HASHTAG> a chic got fresh ass sneaker esp jai
p125
aVRT <HANDLE> The Gypsi Guid My Three BestKept Travel Secret for <HASHTAG> <URL> <HASHTAG>
p126
aV<URL>
p127
aVRT I dont miss Flash on my iPhon Dont we have enough problem with Flash crash our desktop <HASHTAG> <HASHTAG> <URL>
p128
aVshhhhh
p129
aS''
aV<HANDLE>
p130
aV<HANDLE> Indeed i am )
p131
aVwatch a movi
p132
aV<HANDLE> and i ar be pretti hyperact in boilogi todai hahah i wanna run and push her on the flooraasfa is BORING gimmedatpen
p133
aVLe Miser On My Own nekel babalujza <URL>
p134
aVen esa cosa del amorrr ajjajaj
p135
aV<HANDLE> it my cell phone lol
p136
aVbodoh ngilang
p137
aVChillin in the crib feel sore ughhh no pain no gain i guess
p138
aV<HANDLE> pl forward my happi mother dai to your mommi belov wife and sista )
p139
aVmonituid392 <URL> load in <NUMBER> second
p140
aVAffiliat market guidelin Geoff Hadley<HASHTAG>s Blog <URL>
p141
aVListen to the Sound of da Polic station on <HANDLE> <URL>
p142
aVRT <HANDLE> <HANDLE> what can I do to support <HASHTAG> us that hastag tomorrow at <NUMBER> )
p143
aVMondai morn busi as usual (and coffee)
p144
aS''
aV<HANDLE> No el mio era un cocker y no se dormia en lo calcetin a el le gustaba meters bajo la cama
p145
aV<HANDLE> how mani did u manag to skip on the 171km of all stopper
p146
aV<HANDLE> hsaeushaeush
p147
aVMaaf ya kalau gua RTnya salah hehe ini eror
p148
aV<HANDLE> I LOVE THE SAINTS TOO WHO DATYOU DAT pleas follow me
p149
aVAll new Club Penguin Cheat and Secret avail at <URL>
p150
aVReview of The Hair Room Studio Plano <NUMBER> <URL>
p151
aV<HANDLE>
p152
aVWrite
p153
aVGabi not come to the concert now that mean Jani can have her ticket woo sucki she isnt come though(
p154
aV<HANDLE> that song is like <NUMBER> minut long the full version (imma be thing) P
p155
aV(The man who stare at the goat) <URL>
p156
aVArticl Your LinkedIn Profil When Your Unemploi Georg is just on of the job seeker who have written to me <URL>
p157
aVMe n Ms Pee in the AM crzn CO in the convert (lt
p158
aV<HANDLE> lol new york
p159
aVNova Vaga de Emprego Recepcionista com Experincia <URL> <HASHTAG> <HASHTAG> <HASHTAG>
p160
aVRT pontamojya TwitJuk pv BUMP OF CHICKEN <URL>
p161
aV<HANDLE> Good morn )
p162
aVRescu hors respond to diet of TLC <URL>
p163
aS''
aVBeen on the phone to the devil (dell) for <NUMBER> minut <NUMBER> of those were tacki hold music Wtf
p164
aV<HANDLE> We all do Econom suck sometim
p165
aV<HANDLE> have fun )
p166
aVBrought Rylan to Shar school to have lunch with mommi
p167
aVSluggish Tuesdaya usual
p168
aVMe Do you cycl much Yoof Not anymor Me Why not Yoof Freerun Fair enough
p169
aV<HANDLE> Existem coisa pior ) Human Target bem genrica mediana normalzinha ou simplificando esquecvel na hora
p170
aVBlog anyon heard of I <URL>
p171
aV<HANDLE> wwwwwwww
p172
aV<HANDLE> Exactli
p173
aVFor futur refer the poppi seed fill in the deli case at the Butcheri in Brooklin make incred hamantaschen
p174
aVI cant stop eat jalepeno pepper So spici it hurt but Im still addict
p175
aV<HANDLE> ahaha ill never missem thei not goin anywherei mean i dnt club ne more (like i us to but we <NUMBER> now)so we find other thng 2do
p176
aVWatch thi vid and see how Googl and Android is go to pwn the GPS market <URL>
p177
aVse nao conheso (<HANDLE> live on <URL>
p178
aVIf you us link server queri you need to read thi <URL>
p179
aV<HANDLE> PUUUUUUUT
p180
aV<HANDLE> Fala primo devo ir pra Calda Nova com a turma da academia vai ter festa do dia <NUMBER> a <NUMBER> Ma vamo ver uma opo tb
p181
aV<HANDLE> hj nao posso abusar amanha tenho auto escola logo cedo se chegar la zuadao danous hahuahuahu hj eu paro de beber huahuahuahuahu
p182
aVHat Check Hoodi Check Long pant Check Ok readi for bed
p183
aVCheguei hj na UFAM as <NUMBER> hora pra soh ter aula as 1500h e eu ainda tenho ki sair de lah as <NUMBER> Em outra palavra Dia perdido
p184
aVLasagn wa super lekker Echt een aanrad Topiejopi Zometeen even naar hui rijden en quantum of solac kijken
p185
aS''
aVMarco Di Marco Take Off (nicola Cont Remix)
p186
aVTruth in movi advertis A shock concept Only in thi crazi world would peopl be hail a new list of <URL>
p187
aVTechnic SL1200MK5 Turntabl for Sale Brand New in the box RT <HANDLE> <HANDLE> <HANDLE> <HANDLE> I have receipt too
p188
aVahhhhh just finish watch the season final of true blood i love vampir whether thei sparkl or not and carpathian _
p189
aVi hate printer and have no bread and peopl be in hospit stressi dai
p190
aV<HANDLE> mmmwine
p191
aVCOD Cod Mw2 Multiplay Crack Cod Mw2 Multiplay Crack Hello i am request a crack that allow pirat to <URL>
p192
aV75
p193
aV<HANDLE> Ohlmao your sai on Twitterlmao he is my background on my computerlmao
p194
aVProblem Contact dry out as soon as I get in front of a comp screen Why Thi wasnt alwai the case Ive tri three differ brand
p195
aVDo you think it possibl to have so much monei you could have a video game creat base on what u want and no other copi made
p196
aV<HANDLE>
p197
aV<HANDLE> I am fly back to Dalla at 550pmWhat ar you come here for
p198
aVFluent New Is the Sun Miss It Spot <URL>
p199
aVRT <HANDLE> Tem pessoa que em plena sextafeira prferiado acordaram azeda Uma pena
p200
aVobvious
p201
aVDylan ha left for Portland and I feel like such an asshol Great dai Fuuck
p202
aV<HASHTAG> <HANDLE> <HANDLE> hm <URL>
p203
aVZet Pocket Piano (Joakim remix) van DJ Mehdi op <URL>
p204
aV+_+
p205
aVLuna Sol Diapow
p206
aV<HANDLE>
p207
aVSpit on the cowboi star KEEP IT CLASSY EAGLE FANS YALL SUCK
p208
aVRT <HANDLE> Chang out store water everi <NUMBER> month <HASHTAG>
p209
aVRT <HANDLE> RT <HANDLE> RT <HANDLE> Iklan di uber suka kepencet_
p210
aV<HANDLE> voc no qui dizer nunca mai coloco o p na casa da vivian porqu liguei l meia noit e o pai dela atendeu )
p211
aVjust join a video chat with <NUMBER> other peopl at <URL> <HASHTAG>
p212
aV<HANDLE> damn i just look at it I realli butcher it Hahaha
p213
aV<HANDLE> Could be wors thei could us ur which is just plain irrit
p214
aVIm chill with thi
p215
aVcurrent home nu10 <NUMBER> doo bore az fucc
p216
aS''
aVeee isso ai agora e Cruzeiro rumo ao ttulo
p217
aVguten morgen twitter Gut geschlafen
p218
aVFrom SpeedTV <HASHTAG> CUP Hendrick Hire Martin A Dream Come True Hendrick Motorsport M <URL>
p219
aVSwitch to vodka bad new
p220
aVhaha valium
p221
aS''
aVSmok W Da GodSist <HANDLE> N <HANDLE> Yessss
p222
aVguyzim so sorri for not tweet for <NUMBER> dayscuz i still need to do my assign and i still need to write my histori report
p223
aVyu needa <HASHTAG> i should <HASHTAG>
p224
aVRT <HANDLE> There a battl within that I will never win It me that Im up againstIt my heart versu common sens
p225
aVI need to have thi bamboekarpet on wwwonestopshopnltwe0e971596d4f2ad1f97fca0e9baf9907
p226
aV<HANDLE>
p227
aVRT <HANDLE> Nail and pediiii ) Ayo that nigga realli wa him u heard thei caught him
p228
aV<HANDLE> best wish muffin
p229
aV<HANDLE> to pane lever imper tot zordi
p230
aValarm just went off i woke up forev ago should be out in TWENTY
p231
aVCross department cultur awar train is a great wai to ensur that you servic your multicultur audienc successfulli
p232
aVde primeira grandeza e no campeonato no qual os principai time no participam concluiu Joo Paulo de Jesu Lope RINDO no tel
p233
aVIf you try to get more follow go to <URL> You will get <NUMBER> follow fast
p234
aV<HANDLE> es part de la psiqu de lo hombr
p235
aV<HANDLE> so of my friend ar teacher in the Chicago school district so I know how challeng thing ar
p236
aVkalo New Moon jadi trend di twitter apa kabar film IndonesiaAtau haru berharap banyak dari Julia Robert Go Indonesia Movi
p237
aVGoogl Social Search experi goe live googleblogblogspotcom via Googl Social Search experi <URL>
p238
aVdiqu your voic sound sexi ummm no thi raspi shit is not work for me lol
p239
aV<HANDLE> Awesom I have just about <NUMBER> Should be okai then )
p240
aV<HANDLE> I put all form through akismet Bribe Chri to do it )
p241
aV<HANDLE> Greeaaat My problem is I bui the entemann donut hole and I eat them <HASHTAG>
p242
aVHmmterperangkap d tempat ini gk ada hiburanngenet samp mampu lah
p243
aV<HANDLE> Try ExLax
p244
aVnow plai miss poopi by jimmi mcgriff on <URL> all <HASHTAG> <HASHTAG>
p245
aS''
aVGoodnight my Twitter friend Todai wa a good good dai
p246
aVNew blog post Trinumer <NUMBER> <URL>
p247
aVNew blog post VI GOSTEI BLOGUEI DESFILE DA ltbgtFES <URL>
p248
aV<HANDLE> een band met slecht nieuw plaat kan live nog wel steed de moeit waard zijn (Vind m zelf trouwen wel de moeite)
p249
aVNiten holist world God heal When God creat man He wa happi with the work and even said it wa g <URL>
p250
aVOh semua ini gara2 acara keluarga yg sedikit hell
p251
aVRT <HANDLE> <HANDLE> Im Burnt One of the best westcoast track out PERIOD
p252
aVConociendo la historia y cultura de la Isla Canaria Sab<HASHTAG>as que lo poblador de la Isla Canaria t <URL>
p253
aV<HANDLE> ohh damn ( Well my dad is abl to drive to the citi on tuesdai and thursdai anywai with hi job so it just work out like that
p254
aV<HANDLE> yeah but I wish I could get it down more There still about <NUMBER> in close cost
p255
aV<HANDLE> we have a holidai sale on right now at wwwsumoloungecom Your kid would have fun with the Omni veri versitil and durabl
p256
aVWhat a loser
p257
aV<HANDLE> ipriiiittak baru baca tweetmuayyookkmakaan brgato jgn2 uda mkn km qta sms2an ajaa yaahhbb aku matinomernya aku DM
p258
aV<HANDLE> <HANDLE>
p259
aVAdriana_Lima_Google_Images_1 Nelio Guerson amp Carlo Guerson Brazilian Artist post a photo <URL> (photo)
p260
aV<HANDLE> Ye I wa just explain to Dan that CAD us to be more ertica than prn
p261
aVshuuuuuuuuuuuuu retiro lo dichohac <NUMBER> da tena mi invitacin a Wave ya dganm lo que quieran s soi pava jaja
p262
aS''
aVI keep tell my light design honei that the Opene Ceremoni ar where it at
p263
aVSeguimo esperando la llegada de nuestro seor jesucristo vien pronto
p264
aVDiazinho tedioso
p265
aVNew Moon Robert Pattinson to Get a Record Deal from Simon Cowel Deadboltbi Larson Hill Alt <URL> Ad wwwcellpaysucom
p266
aVOMG jux gota call my tio had a heart attack leav the bar
p267
aV<HANDLE> estoi en 2do piso mafaka aca se sient ma machin
p268
aV<HANDLE> eat them
p269
aV<HANDLE> hehe thank look at your site see your on YouLicens how ar you find them
p270
aV<HANDLE> beh in bocca al lupo Sembra un posto meraviglioso ps se avessi budget ti assumerei io E assumerei anch la Jul
p271
aV<HANDLE> Well enjoi your vacat Patti what do you think of the Zatanna kiss Any thought
p272
aVfell asleep <NUMBER> woke up a <NUMBER> go back to bed dang im tire
p273
aV<HANDLE> Tranquil )
p274
aVPet Shop Boi Opportun (Lets Make Lot Of Money) <URL>
p275
aVtakurott <URL>
p276
aV<HANDLE> danar rebol no inferno (6) HUASHUASHUASHUSA NNN
p277
aVT n n n sei que eu no vou ser o primeiro e talvez no seja o ltimo a falar Sophia <HANDLE> <HASHTAG>
p278
aVNow plai Epic Faith No More
p279
aV<HANDLE> <HANDLE> <HANDLE> In all our argu all our compet about the comput we forgot what most import Christma
p280
aV<HANDLE> Que chow Avisa cuando venga a Guadalajara va estara chido vert en vivo
p281
aV<HANDLE> Falaa facilitaVo te encomodar de novo No pedido <NUMBER> no veio o Edredon so o restant da compraTem como vc olhar
p282
aV<HANDLE> read the tweet shawti lmao it sai I WANT the saint to win but I think the colt gonna winI WANT THE SAINTS TO WIN
p283
aVRS suinocultor buscam junto ao Estado a abertura do mercado Europeu<URL>
p284
aV<HANDLE>
p285
aV<HANDLE> ()
p286
aV<HANDLE> <URL> aww great )
p287
aV<HANDLE> lol yuh wuke up
p288
aV<HANDLE> Vasco Mulian sigu riendot en la cara de todo lo televident del 13
p289
aV<HANDLE> Bc if a vibrat could make you breakfast in bed the human race would ceas to propag iPod puls safer for speci
p290
aV<HASHTAG>
p291
aV<HANDLE> kemang gua sekolah di darsal
p292
aVfinish read book on Tati off to bed
p293
aVI will never understand why I can take apartput togeth someth on my car have it start make nois do it again and nois goe awai
p294
aV<HANDLE> Twinnyyyyi I wanna go awai
p295
aVRT <HANDLE> La temperatura es de <NUMBER> gradosltlt en dond q aca morimo d frio jaja
p296
aValll time low ( the best damn band everand owl citi <URL>
p297
aVi love the new <HANDLE> album bryce avari ha been a major influenc sinc i pick up the guitar and drum in <NUMBER> <HASHTAG>
p298
aVRT <HANDLE> Keep think of driven to tear by the Polic too mani camera and not enough food thi is what weve seen <HASHTAG> <HASHTAG>
p299
aVFive For Fight Superman <NUMBER> AM visit wwwRadioTAGrcomWGER to TAG thi song
p300
aV<HANDLE> where do u work that thei have beer dai
p301
aV<HANDLE> How much is it
p302
aV<URL> BIRDMAN aint got sheeit on thi aww blk EVERYTHING P LIKE the ring
p303
aV<HANDLE> ai descupa gata vi deu pra respond
p304
aVageRT RT <HANDLE> SWANTONE23 <URL>
p305
aVRT <HANDLE> note that Sen Lamar Alexand did not get an answer yet to take reconcili off the tablenow Speaker Pelosi s
p306
aVSEO Nonpubl project <HASHTAG> by elusivegroup <URL>
p307
aVis And is and is and is
p308
aVCant leav the game alon the game need me
p309
aV50504060200
p310
aVTalk to a man in a languag he understand it goe to hi head Talk to him in hi languag it goe to hi heart Nelson Mandela
p311
aV<HANDLE> fuck him n hi game haha
p312
aVi am so fuck sunburn I am not happi about thi
p313
aV2312 PM Temp 487F Humid <NUMBER> pct Wind <NUMBER> mph W in Syosset Long Island New York
p314
aV<HANDLE> LFA <URL>
p315
aV<HASHTAG> i got a bust it babi lol
p316
aV<HANDLE> hahahahahaha i know vv
p317
aVFunniest kidfeedback on Littl Lion The Balloon ha a hole in it <URL>
p318
aVahhhhh I knoooo Im soooo stoke
p319
aVAlso Im chilli von willi (not a gud combination)
p320
aVBestny bila dapat ketemu kawan lamaa )
p321
aV<HANDLE> if she wa anti christian iv just gain a whole new level of resepect for her
p322
aVA TOILET EXPLODED Poynter
p323
aV<HANDLE> is it vain to sai im with stupid more often than im not
p324
aVNgantuk berat
p325
aVfairli sure that the time spent discuss MP expens cost more than the actual expens let them have their pr0n2nd hous jeez
p326
aVmakin lama lagu2 di dahsyatd makin nggak mutu ah
p327
aV<HANDLE> me neither becaus button realli arent cute Thei just ARE
p328
aVwatch Twilight lt3 Robert Kristen and the director is comment quit cool actual )
p329
aVMe gusta cuando muerd tu labio como queriendo decir Oye T qu est esperando (8)
p330
aVOri Kennt jemand da Baujahr dieser Uhr (ungefhr) Moin GemeindeFrag Wie alt knnte dies Ori Artelier <URL>
p331
aVWarWizard show me some girl who might have autism on a BGOL post
p332
aVyou know that I can us somebodyyyyi I love that song
p333
aVI am so fascin by thi littl snake It keep poke it head out and then hide again I LOVE IT
p334
aVR6 Join Mykono accomod for Mykono Summer Holidai <URL>
p335
aV45 <NUMBER> to Win Bot <NUMBER> <NUMBER> Out 1__ Colbi Rasmu advanc error off pitcher Francisco Cordero
p336
aV<HANDLE> quanto tempo que no falo com voc principalment por aqui
p337
aVRT <HANDLE> <HASHTAG>
p338
aVAs a NeuroMuscular Massag Therapist I will not onli give you specif massag I will show you homecar massag for you to do AT HOME
p339
aVDr Hook The Medicin Show Share The Night Togeth <NUMBER> PM visit wwwRadioTAGrcomWIYY to TAG thi song
p340
aVTime to go find food Someplac
p341
aVbueno dia de nuevo el alcald en la TV
p342
aVshe need a fire truck fill with mouthwash
p343
aV<HANDLE> oh ye invit me to confer so I know what peopl think about me stupid
p344
aVRT <HANDLE> <HANDLE> VOTE EM MARIA CECLIA PARA MELHOR CANTORA <URL>brlists1868finalmelhorcantoranacion
p345
aVmau pulaaaangg ___ laper capek hau
p346
aV<HANDLE>
p347
aV<HANDLE> oh that amaz sista and he sound great on radio Im sure he do LoL and see ya soon my nutttttttti D
p348
aS''
aV<HANDLE> Omg kid ar fail your classthat wa the easiest class ever lolwow
p349
aVestoi viendo un directo de jamiroquai hace un fro de muert tengo lo pezon disparado
p350
aV<HANDLE> oh ye pleas is he hous train
p351
aVWhen someon doe someth good applaud You will make two peopl happi Samuel Goldwyn <HASHTAG>
p352
aV<HANDLE> i bare have enough nonsens to make it for on so two in a week would be push it i need a plan
p353
aVOne birth on death and all the act of pain and will between Jo Walton reread Loi Mcmaster Bujold Barrayar <URL>
p354
aVI rate a YouTub video (5 out of <NUMBER> stars) Borgor Saturdai Night (Gorestep) <URL>
p355
aVwatch question time like a big fuck nerdsad old fart
p356
aVI Want I want I Want The Golden Ticket ) I Want it )
p357
aV<HANDLE> wut dmv
p358
aVLOM simpos face a Neuchatel Xamax <URL>
p359
aVGot an earli dai 2moro Ugg Callin it an earli nite tweepl
p360
aVATTN all sucka ass maleswho dont posess enuff skill to approach a femal correctlyshoot urselvesur a wast sincer <HANDLE>
p361
aVFogMist and <NUMBER> F at HartsfieldJacksonAtlanta Internat Airport GA Wind ar Southwest at <NUMBER> MPH (5 KT) <URL>
p362
aVIt street fam for life we ride to the death we plai hard ball so dont cry to the reff I dont know u so pleas move to the left
p363
aVAwww just saw a friend new babi So sweet and ador
p364
aV<HANDLE> butth cake is a lie dontcha know
p365
aV<HANDLE> It ship to the US ArMex address
p366
aVNOW PLAYING Corina If You Believ <URL>
p367
aV<HANDLE> were go
p368
aVMeatbal Stick To Movi Menu Top With 246M The Soni anim tale rais it domest haul to <NUMBER> millio <URL>
p369
aVShit Forgot to charg phone
p370
aVBout to call it a nite
p371
aVIm still at school And Ill be here until 730pm LOL
p372
aV<HANDLE> percebi kosako tessalia tessalia tessalia O nunca vi koasko gamo
p373
aVDude did you touch my drum set
p374
aVUnfortun my sponsor here at NASA is definit an enabl )
p375
aV<HANDLE> it gonna be greatAA <URL>
p376
aVmy ps im not go to talk about brown i cant be bother to read the book bloodi hell
p377
aVNew Arcade Game Monkei Island SE <URL> <HASHTAG>
p378
aVSarandon Legal Battl Over Ping Pong Club <URL>
p379
aVGmail <NUMBER> Gmail )
p380
aV<HANDLE> hahah i felt a littl guilti but i alwai tell peopl i cant cook but i give great head
p381
aVTw
p382
aVThi Twitter Program Will Blow Your Mind <URL> <HANDLE> <HANDLE> <HANDLE> <HANDLE>
p383
aVCheck thi video out Im Just a Babi (Justin Bieber Babi Parody) <URL>
p384
aV<HANDLE> <NUMBER>
p385
aVCannot Install Find Driver for Microsoft 24GHz Transceiv USB <URL>
p386
aV<HANDLE> look for all of the drunk from lastnight Halloween Parti that he wa at
p387
aV<HANDLE> Scheiss schon wieder rickrol lol
p388
aVSo exhaust and a bit burden Go to enjoi girl night out nonetheless Will just have to make it an earli quit
p389
aVLove the yellow touch <HANDLE> look gorrrrgeou <HASHTAG> love it wen u pull dat sexi facial express He he
p390
aVR
aVDim view of <NUMBER> memori <URL>
p391
aV<HANDLE> You ar veri veri cool kiss
p392
aV<HANDLE> spitta da how fly mixtap is mo def flyinn i be produc bro
p393
aV<HANDLE> nhaaaaaw obrigada pah voce que fez
p394
aV<HANDLE> Yeah the NFL ha done some pretti huge recruit for women fan and ha appar also done market research on jersei
p395
aVMSNBC Stock futur pare gain after GDP revis <URL>
p396
aV<HANDLE> Hola amigo la esperanza es lo ltimo que se pierd Seguir esperando a ver si un rayo le cae y loilumina
p397
aV<HANDLE> wOw wat een servic richt t KC Je lijkt Calslaan 16a wel ten tijd van De Brand
p398
aVphoto by <HANDLE> check out her work <URL>
p399
aV<HANDLE> la clase de kyli no la tendra Gaga JAMAS
p400
aVBusi Financ and Investment New for <NUMBER> <URL>
p401
aV<HANDLE> You do same with your collect <URL>
p402
aV<HANDLE> wait that a deal I cant refus kid Ill be there soon just save me a seat on the awesom train kevozilla
p403
aS''
aV<HANDLE> itu foto siapa wa pake krudung geun
p404
aV<HANDLE> WHAATTTTT I WAS NOMINATED
p405
aVWort de Tage Schneeschmelz
p406
aVRe O inseto mai raro do mundo Simpaticooo <URL>
p407
aS''
aVESPN MLB TB Home Run Bottom 4th BAL <NUMBER> TB <NUMBER> B Zobrist homer to left
p408
aV<HANDLE> i definatli will ) u should read the Meredith Gentri seri by laurel k hamilton U would like them
p409
aVScratch that next flight delai for three hour (
p410
aVaposto que vou ficar a madrugada sozinho de novo
p411
aVAlice In Chain Check My Brain <URL>
p412
aV<HANDLE> Joe will be the death of me )
p413
aV<HANDLE> lol why
p414
aV<HANDLE> smertefritt om lag ein time
p415
aVHAHAHAHA VOCES NAO MERECEM FALAR NEM COMIGO NEM COM O CORTEZ MEU ANJO HAHAHAHAHAHAHAH
p416
aVSome might sai read Finnegan Wake on such a perfect winter dai is a shame too Will look out of the window for inspir
p417
aV<HANDLE>
p418
aVJona brother rock you gui ar amaz singer Sophi from NY
p419
aVThe FA Cup where all men ar treat like idiot There is an advert plaster over most of the countri at the <URL>
p420
aV()
p421
aVUrg morn Later rise than I should Now sprint for 8am startARG
p422
aVNow plai ROCK THIS TOWN by STRAY CATS
p423
aVNYC is close school befor it even start to snow Weird
p424
aV<HANDLE> samana imo twitavatar oi hahahahah p
p425
aVIt a fact ultrafest ha the hottest teen in the planet God love me D Eye candi sparkl
p426
aVit is about to HIT THE FAN <HASHTAG>
p427
aV5 Dai Off gaat naar maart <URL>
p428
aVI think that wa wai too much for lunch
p429
aVCheck Galileo in Philli <URL> if you ar not abl to fly to Florenc thi summer
p430
aVRT <HANDLE> <HANDLE> hei mama you goin to that show Fat Cat on the 25th Im pretti sure It sound fun ARE YOU D
p431
aV<HANDLE> hella close Lol
p432
aVCharter ha chang it cabl TV channel list and we have the new lineup here <URL>
p433
aV<URL> <HASHTAG>
p434
aVRT <HANDLE> <HANDLE> <HASHTAG>
p435
aVhoza ur gonna come back with googli ey
p436
aVthe ipad is okbut it to big
p437
aV<HANDLE> HmmChicago When I visit there I wa approach by a gorgeou man and accost by a confid homeless man win <NUMBER> min
p438
aVMsg rcvd <NUMBER> <NUMBER> room temp <NUMBER> light <NUMBER> batteri <NUMBER> accelXYZ <NUMBER> <NUMBER> <NUMBER>
p439
aVHealth care sick dai school among issu for labor <URL>
p440
aVso yeah im feel kinda edgi todai guess it caus im sore andhav a headach dant bump hi ey on hi toi earlier
p441
aVOh snap Bust <URL>
p442
aVAhead of the Bell More eros like in Yahoo 4Q <URL>
p443
aVRT <HANDLE> rt <HANDLE> Dem li when thei said the GDP grew onli grew in the Gov not in Privat Sector Job VOTE AGAINST THE DEMS
p444
aVBEIJOS BRASIL mai tard tem PAREDONES e eu vou preparar a minha CAIXA DE FOGUETES FUI ZzzzzZZzzZZZZzz <HASHTAG> <HASHTAG> P
p445
aVit a i wanna just chill and watch movi type of dai
p446
aV<HASHTAG> you ask me how much I earn on the first date You gon pai for thi bill am out
p447
aV<HANDLE> what flavor
p448
aV<HANDLE> Noth Hun Just Gettin In At Work
p449
aV(402) On the wai to the bar I saw some interest graffiti on a bridg As I got closer I notic it said Vampir do NOT sparkl
p450
aVskull g till gymet idag och springa p den dr trampmaskinen med handtag drack folkl och grillad baconlindad varmkorv istllet
p451
aV( Receita de Licor de Laranja <URL>brreceitadelicordelaranjahtml
p452
aVMy plane just land in boredland via brokeland Mum the monei call pleas
p453
aVRT <HANDLE> Ladi if u wanna send ur man in2 anoth woman arm ju close ur (love da <NUMBER> u wit)
p454
aV<HANDLE> if i guess correctli can I go too ) Is it French Laundri
p455
aVyo im chillin just doin it
p456
aV<HANDLE> ander spoel je het toilet even door)
p457
aVIntroduct to Internet Market Search Engine Optimiz Product DescriptionThi book explain funda <URL>
p458
aS''
aVi dont like rap but i think kid cudi is friggin amaz
p459
aVso i thought my mom wa work out caus i heard on of those workout video on so i walk in and she just lai down watch it ahaha
p460
aVHoli crap It just a white screen
p461
aVMorn twitta worldfresh start new dai thank god <NUMBER> wakin me up to see it
p462
aV<HANDLE> man the loon tune ar sure come out of the woodwork on that stori
p463
aS''
aVAt Yale Lift Truck of Florida Georgia we offer a select of us lift truck and forklift for the busi on a budget
p464
aS''
aV<URL> Should I cut my hair short Or find a more stylish wai to wear it long
p465
aVLimbaugh Hillbilli Heroin <HASHTAG>
p466
aVTwitter
p467
aVFind Job Account Exec Advertis Internet Market Legal <URL>
p468
aVthetehtypo
p469
aVRT <HANDLE> Thank to a site call suckuk you can now microwav cake into alarm clock digit FINALLY <URL> WANT
p470
aVN97Nokia Messag
p471
aVBut no
p472
aVfail to creat an perspect arrow out of line in open offic and fill it with a color it simpli doesnt work (
p473
aV<HANDLE> rapot gue lumayan naaai haha tp kyknya byk yg ga trima wesss
p474
aVNew pic from tri on Submit url <URL>
p475
aVdamn i miss the <HASHTAG> <HASHTAG>
p476
aVconveyor belt of love new favorit show
p477
aV<HANDLE> Haha you should go But OMG you know the mini platform in the middl of the danc floor Ayesha fell from it TWICE LMFAO
p478
aVY as camina un Doctorado the grad school experi is univers Cheer <HANDLE> <HANDLE> <HANDLE> <HANDLE> and PhD everywher
p479
aVTelemarket dish network y directv usa Para trabajar en Lima Per <URL>
p480
aV<HANDLE> how much
p481
aV(10) (ID ZEROSUM) <URL>
p482
aVnot onli do I have on brother but now I got two (
p483
aV<HANDLE>
p484
aV<HASHTAG> <HASHTAG> <HASHTAG> <HASHTAG> <URL>
p485
aVRead half an articl on Ron Perelman think he wa Barri Diller Need to leav the citi
p486
aV<HASHTAG> <NUMBER> <URL>
p487
aV<HANDLE> ju a lil homi Where u head too
p488
aV<HANDLE>
p489
aV<HANDLE> Bom dia Marco Rsss
p490
aV<HANDLE> Well see
p491
aVKompascom <HASHTAG> CRIME STORY Rp <NUMBER> Juta Uang Palsu Sudah Beredar Dar <URL> <HASHTAG> <HASHTAG>
p492
aVFile lawsuit as a hobbi Hamilton Counti judg and the Ohio Suprem sai Dont think so <URL>
p493
aV<HANDLE> YU LUCKY I DONT PETER ROLL YA SHIT LMAO
p494
aS''
aVqueero um corao pra milk por favor (<HANDLE> live on <URL>
p495
aVTalk XD
p496
aVOOOH SONO
p497
aVdang it<HASHTAG>s late
p498
aV<HANDLE> te toca salir esquibando duend y turba xD
p499
aVmonituid19 <URL> load in <NUMBER> second
p500
aVLaughter is the shortest distanc between two peopl Victor Borg <HASHTAG>
p501
aV<HASHTAG> <HASHTAG> <HASHTAG> <HASHTAG> <HASHTAG> <HASHTAG> RT
p502
aVhttpjp <NUMBER> 014212
p503
aVFerienhau fr <NUMBER> Personen Viareggio einfach Reihenhau im Ortszentrum von Viareggio <NUMBER> km vom Zentrum von <URL>
p504
aVI lyk grei <HANDLE> <HANDLE>
p505
aVLoookin At Labor Pain On The Famili ChannelLol
p506
aVPhone stolen by <HANDLE>
p507
aVLove thi Sum up what iv been try to sai for the last month <URL>
p508
aV<HANDLE> nee dochter van ed is jarig
p509
aVPotenti awai tie to Bolton finger cross
p510
aVGive the brother a haircut then get thi Superbowl Sundai start
p511
aVI hate long dark hallwai Unfortun Raptur appear to be made of them
p512
aV<HANDLE> Hei laurenw got soooo much Snow in Boston huh HAHAgotta love the WeathermanEASIEST JOB EVER
p513
aVouvindo o <HASHTAG> again
p514
aVsomewher we went wrong we were onc so stronng
p515
aVsolo <NUMBER> dia
p516
aVHappi Thanksgiv <URL>
p517
aV<HANDLE> ar thei still live togeth
p518
aVVamo invadir a La Boat
p519
aVRT <HANDLE> RT <HANDLE> RT <HANDLE> Happi Birthdai Drummer <HANDLE>
p520
aV<HANDLE> I agre After Hour is more Jarmusch but NOBODY can do those breathtak sweep the wai Scorses doe And earli steadicam
p521
aV<HANDLE> creem q asi sera feliz navidaddd
p522
aVI think i wanna order cinnamon stix
p523
aVPaysandu desgast fsico preocupa Valtinho Uma da raze para a queda de rendimento tcnico do bicolor ne <URL>
p524
aVPeanut Processor Ignore Salmonella Test Knowingli Sold Taint Product washingtonpostcom <URL>
p525
aVCLEAN TECH BREAK THROUGH BLOG <URL>
p526
aVPeter Fox bei Mixeri Raw Delux im Interview <URL>
p527
aVThe Bodi Shop Cheek Lip Tint Review I just love tint I love the love but natur color thei impart So <URL>
p528
aV<HANDLE> <HANDLE> <HANDLE> <HANDLE> <HANDLE> <HANDLE> <HANDLE> <HANDLE> <HANDLE> <HANDLE> <HANDLE> <HANDLE> <HANDLE>
p529
aVHappi Bdai Have Funn<HANDLE>
p530
aVMake dinner for grandma )
p531
aV<HANDLE> why keep go to your home got free show
p532
aVDih di lakesgilut gw liat anak main rubik bentuknya segitiga katro rajin amat tuh anak
p533
aV<HANDLE> se voc quiser eu fao uma D
p534
aVIn search for job I found <NUMBER> job nearbi Black Oak Arkansa
p535
aV<HANDLE> I have had less than four hour sleep thank to the awesom of the Js
p536
aV<HANDLE> My boobi ar awesom
p537
aVStill pickin up them damn hat haha Redonkul
p538
aVHow you sell weight but you got a twitter facebook myspac aim bbm tagg gtalk and a boost fed phone LMAO <HASHTAG>
p539
aVsih
p540
aVBoeuf Bourguignon O nome complicado ma o preparo fcil com bacon vinho tinto cogumelo e cebola 8109997
p541
aV<URL>
p542
aS''
aV<HANDLE> But I like Glee )
p543
aVQuem defend o aborto cre em um estado debil que nao se afirma para os rico e tb nao deve se afirmar para os pobr
p544
aVofflin bye
p545
aVAnd what jst happen on Californ Me too Myrtl Beach SC <NUMBER> lmao
p546
aV<HANDLE> w
p547
aV<HANDLE> hahahaha sok gatauuuu d rmh bosen eui dr td main game doang krik mata capek
p548
aVWhat a lame ass night Wish i could have seen my kid todai befor head to work
p549
aVcook (lower lonsdale) The District expand in Juli and we ar busi Realli busyW ar in need of <NUMBER> solid exper <URL>
p550
aV<HANDLE> uhm becaus your hot
p551
aV17 hour dai Bed tonight will be gloriou
p552
aVREC2009 Level2
p553
aVMichael Jackson Billi Jean <NUMBER> AM visit wwwRadioTAGrcomWTUG to TAG thi song
p554
aVSearch our onlin florist directori to bui flower arrang for ani reason Find a florist with thi onlin <URL>
p555
aVDOWNLOAD fresh hot music for the summer <NUMBER> <HANDLE> <HANDLE> THE GREEN FLAG Mixtap FREE OF CHARGE GET it NOW wwwreverbnationcomgf
p556
aV<HANDLE> alreadi left just wait for my homegirl to get out of class now
p557
aVcall me emot but never sai never by <HANDLE> just made me tear up a littl bit Love that song <URL>
p558
aVGot the cutest damn night light Twelv dollar at Fred Meyer
p559
aVJammin to some Led Zeppelin I love me some Bonham Montreaux
p560
aVi wuldnt b abl to live wout mi csy basketbal Shme Famili wout u gui id b lost
p561
aVWonder why last week no score post for Mission Vallei I look at the week <NUMBER> wall and dont Mv with a spot wait for a score
p562
aVHello Feel like I havent tweet in forev Get back into the swing of thing after all those dai off
p563
aVIh seru ya uber yg baru Otomati kluar friendlistnya pa ngetik ihiiiiii Nice nice nice
p564
aVFarmVil Secret Domin Farm vill Farmvil CheatsTrick Tips<URL>
p565
aVpartiu imigrant
p566
aV<HANDLE> hi what go on tonight
p567
aVRT <HANDLE> i wana fixi but my parent wont bui it for me
p568
aVRT <HANDLE> <HANDLE> why is MrG lai in bed with you ltidk he tire he wont get off not even bribe him with food lol
p569
aV<HANDLE> Yep Figur that out
p570
aVSit on the Ritz Carlton terrac abov the ocean have a drink while watch surfer and the sunsetbeauti
p571
aVIM NEW IN TWITTER
p572
aVRT <HANDLE> Just saw Templ Grandin on HBO Clair Dain give on of the best perform Ive seen in a veri long time
p573
aVGood morn worldAnoth dai anoth <NUMBER> (before state feder tax insur Medicar and Christma club)
p574
aV<HANDLE> ALICE
p575
aV<HANDLE> <HANDLE> <HANDLE>
p576
aVRT <HANDLE> And now a pluck headless chicken bridewed cake <URL> (you know you wanna see this) you do
p577
aVDont piss me off Im run out of place to hide the bodi
p578
aV<HANDLE>
p579
aVFinal feel sicknessfre work then bdai celebr then home to get readi to leav for AC
p580
aV<HANDLE> de nada cuidat igual y te da pork fluXP
p581
aVIt about finish Ive never been at work until 230am befor and Im downright dishearten that it had to happen
p582
aVlada <NUMBER> sport coup resimleri <URL>
p583
aVwell i must sai thi is excit stuff i can hardli contain maself here
p584
aVGood night
p585
aV<HANDLE> Chondroitin ha never convincingli proven to have ani benefit for arthriti and glucosamin is debat <URL>
p586
aVNow on Lithium What Do I Have To Do by Stab Westward
p587
aVI feel weird
p588
aVso cuteeee <URL>
p589
aVYo mama she get craaazi
p590
aVIn <NUMBER> the industri wa contempl Will CSS final have replac tabl for page layout So happi that settl
p591
aV<HANDLE> Ohhh gatona Ainda no twitamo hj Como assim
p592
aV<HANDLE> Im on campu b lol Im tryna get up with yall I have no cloth on and Im sure yall dont wanna come on campu
p593
aV<HANDLE> Stuckholm
p594
aV<HANDLE> Olha essa banda PontoForsom fino wwwpontofornet Add ai no msn kandimam2<HANDLE>com (Dan) veja os clipe da banda
p595
aVSam pack up UR stuff I just won the lotteryShal I pack <NUMBER> warm weather or coldWhatev Just so your out of the hous by noon
p596
aV<HANDLE> real talk u a twitter bulli and u a hunni wassup wait dat
p597
aVchat at <URL> <HASHTAG>
p598
aVhei Janet
p599
aVI just enter to win a <NUMBER> Sear gift card from American Home Shield You can win too Follow <HANDLE> and RT <URL>
p600
aV<URL> <HANDLE> that wa fun
p601
aV<HANDLE> ye it doe But opera mobil isnt support
p602
aVjesu you whine like awellwors than a girl
p603
aVHelp Cook Breakfast With My Grandma
p604
aV<HANDLE> thank
p605
aVLOOK AT TAYLOR SWIFT GOOOO GIRL
p606
aV<HANDLE> kan beda xen kelasnya Gw ngumpul foto yg freez sm pan Skrg si gw ud di kl korea Hahaha
p607
aV<HANDLE> <HANDLE> yang tuga tik satunya suruh ngapain
p608
aV<HANDLE> how wa the show
p609
aV<HANDLE> hahahaha
p610
aVTwo new tune in <NUMBER> hour
p611
aVis hungri Head for delici bak kut teh in pandan indahleav d worri behind
p612
aVStop Nap time
p613
aVTaylor swift plai here tonightcan u believ that show sold out in <NUMBER> min Lol Disnei should give her a show
p614
aV<HANDLE> Im sure he worth it )
p615
aVWere drink under the tent on Perri rooftop It a downpour outsid It thunder and Micheal Jackson is plai Awesom
p616
aVItu apa deh gikyknya gw tau tp lupa hahaRT <HANDLE> Kangen trio aldyjasonjono <URL>
p617
aV<URL> Hike run battlefield park
p618
aV<HANDLE> mend dengerin ost sang pemimpi semuany biar gak luka hahahaha
p619
aV<HANDLE> TEE DEM ON DA AVE
p620
aVflickr updat Still waaayyyi behind but that how it goe
p621
aV<HANDLE> <HANDLE> ha yet to experi the power of candi leather seat he will learn
p622
aVRT <HANDLE> <HANDLE> I did that dai now I dont lol Well POOT u too lmao
p623
aVwwwJMedinaLIVEcom for your unsign new tune Tuesdai Listen and Vote
p624
aVCall snooki fat bitch and iwil track u down
p625
aVNME Radio is now plai Rene Love Loser by LR Rocket
p626
aV<HANDLE> mylf ha spoken
p627
aVThe joi of a slow train to bletchlei Thi is not a code messag
p628
aVABG di Padang Hilang Ditelan Gelombang Ingin menyalurkan hobi memanc Lian Faderi (15) warga Bukit Lampu R <URL>
p629
aVAs foto de Flame Citron Os Resistent em estreia esta semana <URL>
p630
aV<HANDLE> what ar you in the mood for
p631
aV<HANDLE> mir geht es auch gut )hahaja vorhin da war voll funni ne D
p632
aVvia <HANDLE> <HANDLE>
p633
aVMe acaban de llegar lo Toi de smupfcom Guapsimo
p634
aVO Vanguarda Comunitria faz uma pausa em sua atividad prometendo voltar logo mai Uma boa madrugada
p635
aVCharger Vs Titan SCORE Current score on the Charger vs Titan game is <NUMBER> The Charger vs Titan game <URL>
p636
aVawwwwww u gon make me eCri in thi summummubish <HASHTAG> <HANDLE> cuz she rep that Dalla Dope
p637
aV<HASHTAG> <HASHTAG> <URL>
p638
aV<HASHTAG> black n gold samp sparro
p639
aVYahoo HotJob Job Posting(s) <URL>
p640
aV<HANDLE> Bienvenida recib un saludo desd Monterrei NL Mxico
p641
aVBowl forecast Utah BYU ar top choic for Poinsettia and Vega bowl BYU and Utah footbal player coach and <URL>
p642
aV<HANDLE> gahahahaha seru iya pasti gw tonton (hueks) hihihi kan gw liat lo dari satelit (lebih)
p643
aVhappi birthdai St Michael de Archangel maupai nga patron mga Laoanganon kampai _
p644
aVI is back from school and is excit for the weekend ) I is watch gener hospit and I have a feel thi will be a good episod )
p645
aVRT <HANDLE> Im thinkin of get rid of my Twitter account I think Im rot my brain with alot of bullshit idk yetit
p646
aVRT <HANDLE> berteman sama siapa aja tapi buat sahabat haru pilihpilih
p647
aVTodai we celebr the Feast Dai of St Katharin Drexel our founder Mass noon Join the NO Alumni Chapter Sun March 7<HANDLE>30 for Mass
p648
aV<HANDLE> is at pub wait for other
p649
aVTeacher Find Littl Girl Wander <URL>
p650
aVRT <HANDLE> There a good chanc that Unfinish paint of Utopian Puppet ha been sold <URL>
p651
aV<HANDLE> SOMOS DUAS e aparentement essa coisa esto em todo canto agora
p652
aVBob Seger Turn The Page <NUMBER> PM visit wwwRadioTAGrcomWLVQ to TAG thi song
p653
aV<URL> Some come in blue
p654
aV<HANDLE> gt_________________gt hand
p655
aVLadi dont let ya coochi get <HASHTAG> bc then dickhead will be scare to battl bc when u open ya leg onli hot fiya come out
p656
aVNicht ist liebenswert al Dummheit die schweigt Karl Heinrich Waggerl
p657
aVMan about to go to work daaaaamn
p658
aVnaranjero En Tijuana <HANDLE> no deje de ver a HeavenAC un gran twittero y mejor ciudadano
p659
aV<HANDLE> ()mb
p660
aV<HANDLE> eem no
p661
aVI alwai try to remain profession when do busi w folk but when folk ar unprofessionalwoo woo
p662
aV<HANDLE> I would agre with that statement
p663
aV<HANDLE> llsnaw ju butt pirat
p664
aV<HANDLE> did you make it over to the warrior famili support center
p665
aVcucian <NUMBER> ember gede woh smangat jemur smbl dgr musik (music) <URL>
p666
aV<HANDLE> what wa the box set
p667
aV<URL>
p668
aVKali Dirti Co R US <URL> <HASHTAG>
p669
aV<HASHTAG> imma call you later knowin damn well i aint gon call u hehe
p670
aV<HANDLE> isnt he the gui recent featur chase kitten
p671
aV<HASHTAG> adoro retwitar os tweet do <HANDLE>
p672
aVBom dia a todo Mai um dia cheio de Sol da UFV ( calor infernal)
p673
aV<HANDLE> truee lekker tukken dan
p674
aVEm Floripa agora temperatura de <NUMBER> grau
p675
aV<HANDLE> yepp D ili
p676
aVNB DVP Congest From Queen To Beyond YKmill Post <NUMBER> pm Updt <NUMBER> pm
p677
aV<HANDLE> yea yea i kno lol
p678
aVRealli GREAT blog entri by <NUMBER> of my pastor <HANDLE> The Cost of ExcuseMak <URL> via <HANDLE>
p679
aVStress Engineer FDT Job Bristol Gloucestershir Vacanc ID High end aerospac engin consult <URL>
p680
aV<HANDLE> Are Erin or Andrew onlin much
p681
aVTodai ha just been a veri <HANDLE> fill dai lol
p682
aVLeader miss at <NUMBER> Dallasarea school district as student return <URL>
p683
aVintel seem like a good stock to invest indaaannggggidk if i should <HASHTAG><HASHTAG><HASHTAG><HASHTAG><HASHTAG> market<HASHTAG>
p684
aV<HANDLE> blaah you should take a field trip Get some lemonad
p685
aV<HANDLE> lol thanx feel like the mornin to mei had a long nite
p686
aVFor Sale gtgt Sell Sport Sneaker Basketbal Shoe Footwear Shoe Dear friendW ar a trade <URL>
p687
aVRT <HANDLE> Had a great birthdai thank u <HANDLE> <HANDLE> <HANDLE> <HANDLE> <HANDLE> <HANDLE> <HANDLE>
p688
aVTaken Good movi whod have guess that Liam Neeson is dead and hi daugther actual see dead peopl
p689
aV16 dai sober it nuthin Shout out to all my drunk tweeter yall in the buildin I see ur drunk non spell ass lol
p690
aVisso milei esfrega na cara que agora voce esta com o nick e eu nao xx
p691
aV<HANDLE> lol u couldv hit me up too But nuthin What new
p692
aVWell now Im just go to think of that as anoth AmKrysKryB moment B teehe
p693
aV<HANDLE> lol boi Go to twitpiccom
p694
aVConclus of the night White Hors by Taylor Swift fit perfectli with Halloween Two by Rob Zombi
p695
aS''
aVA beauti dai in Pheonix AZ for a Sangin <URL>
p696
aVVoorbeeld Waarom zoveel aandacht in de media over (schoonheids)idealen van de vrouw maar amper die van de man S
p697
aVHear alot of Pleas hold on Pleas exit through the rear door San Francisco bu MUNI system
p698
aV<HANDLE> Met een bu gaan joyrijden )
p699
aV<HANDLE>
p700
aV<HANDLE> cala a boca uahUAhU PS mandei um email pro paintbal pq os <NUMBER> tel ngm atend e at agora <NUMBER> resposta
p701
aV<HASHTAG>
p702
aVMy stomach feel fantast
p703
aVgrt intvu with Todd Zwillich on <HANDLE> re AIG Avail via podcast and reair 9am est also did stori on remitt fall <NUMBER> Mex
p704
aV20020704100 <URL>
p705
aVnossa fui bem pra caramba na prova de NY hoje ironia on
p706
aV<HANDLE> I thought you had an account on macthemes2net XD
p707
aV<HANDLE> ALLEZ LES BLEUS
p708
aVget readi to leav yeah yeeahhh
p709
aVDodd Lieberman work to secur <NUMBER> million for Connecticut Air Nation Guard Senat Chri Dodd (DCT) and J <URL>
p710
aV<HANDLE> amigaa me cont o q rolou na Fazendaperdi hoje
p711
aV<HANDLE> Ga knape2 Loe Djai Btwdah tau blon ada aplikasi BB yg kalo ada gempa (berdasarkan info dr BMG) ntar BBnya bergetar
p712
aVmudana mudana
p713
aV<HANDLE> USIAEHOIUSAHEOIUASEHASOIEUHASEIUaaah muito linda ela
p714
aV<HANDLE> diem aja lu cing bkin ni hri empet aja dgn tweet lu yg norak hahahaha
p715
aVBe patient
p716
aV<HANDLE> edgar winter free ride
p717
aS''
aV<HANDLE> Im like the sound of you get through the chapter )
p718
aVAssitindo Beijamin Bolton amm
p719
aVque nadaa D de ond (<HANDLE> live on <URL>
p720
aV<HANDLE> LOL I want to meet LT Gabbi Wahh haha Gotta go na gurl Nightyi Sweet dream
p721
aVLost
p722
aVEn rout back to Philli
p723
aVReal Madrid <NUMBER> Million In Debt The Footi World Cup and The Real Madrid CF soccer club ha reveal t <URL>
p724
aVWhat up <HANDLE> thank for follow
p725
aVRT <HANDLE> Happi birthdai to daddyni atu <HANDLE>
p726
aVMankind must put an end to war or war will put an end to mankind <HASHTAG>
p727
aVLazi Saturdai Loung shop then out for Staci birthdai )
p728
aVse o Ronaldo tivess dito isso vamo matar os bambi com certeza seria apena uma brincadeirinha sem maldad
p729
aV<HASHTAG> mad fuck hype everyon send me your gamertag
p730
aV<HANDLE> yeah sorri about that been sort out alreadi but involv actor drop at last min
p731
aVdaisi tomorrow eek D x
p732
aVthere certain org Ive want to join Creativ Club and CofC but I find the membership fee better place at event like barcamp
p733
aVcant even concentr
p734
aVNOW PLAYING Jovi Rockwel Rizzla <URL>
p735
aS''
aVRT <HANDLE> Sir we have a dress code at thi cours <URL>
p736
aVDeclin of Western Civil <NUMBER> onlin <URL> thx <HANDLE>
p737
aV<URL>
p738
aV<URL> pixx
p739
aVI love Western Digit My Passport Essential <NUMBER> GB USB External Hard Drive <URL>
p740
aV<HANDLE> ar you drunk
p741
aVTodai wa our last visit with thi CO I will miss him What a great speaker
p742
aV<HANDLE> take the dai off shawna r r will help although i know it easier said than done )
p743
aS''
aV<HANDLE> acceeeeeept si I alreadi add you <URL>
p744
aVWomen who scream ar annoi I should walk around with a gun
p745
aV1Xtra Soulja Boi Sammi Kiss Me Thru The Phone <URL>
p746
aVCut stress to stop kid headach The main goal of cours is to reduc stress sai Kropp That can be achiev <URL>
p747
aV<URL>
p748
aVHome from a beauti dai with fam and friend up in Cocoa Beach Im go to load You Tube video soon Stai tune
p749
aVil twittercamp nello stesso giorno di uninaugurazion che devo seguir ma posso sempr far spostar linaugurazion D
p750
aVEnfim gordinho ou no me voi
p751
aV<HANDLE> work shy
p752
aV<HANDLE> what wrong
p753
aVRT <HANDLE> <HASHTAG> caus Im light skin with long hair shit hate my mommi for that smh
p754
aVRT <HANDLE> STOP TEXTIN ME I CANT RESPOND MOTHERFUCKERS
p755
aV<HANDLE> Try the default 2222
p756
aVAll Question have been answer Sorri if you didnt get a chanc Zoe Question ar everi Wednesdai time ar certain
p757
aV<HANDLE> have a fab time on <HASHTAG>friends hon You will be ac x
p758
aVLo da de invierno
p759
aVYou Had Sex With <NUMBER> Gui Huh iT Wa <NUMBER> Not <NUMBER> One Wa A Black Gui He Count As Two LMAOO
p760
aV<HANDLE> Nunca fui de tomar partido no baixo todo e vejo qual est mai rpido Fazem un <NUMBER> mese que estou no Chrome
p761
aVRT <HANDLE> Bitli respond ao Googl <URL>
p762
aV<HASHTAG> Littl Nicki
p763
aVArgentinian want Maradona head <URL> <NUMBER> <URL>
p764
aV<HANDLE> no adam pleas no
p765
aV2nd guessingdont know if i wanna do sum light shoppin now or Wenesdat when i get a few mo dolla
p766
aV<HANDLE> u do that lol
p767
aV<URL> <HASHTAG>
p768
aVTwitter<URL>
p769
aV<HANDLE> tiduur ivon hha
p770
aVjust vote taylor swift on which celeb look cute when thei cry vote too <URL>
p771
aV<HANDLE> Thank
p772
aVRT <HANDLE> Dynam Price Come to Amazon Cloud <URL> by <HANDLE> (via <HANDLE>)
p773
aV<HANDLE> Oh most definit Well have to show you it all tomorrow
p774
aVWeek <NUMBER> Crossword <URL>
p775
aV<HANDLE> lol no prob
p776
aV<HANDLE> same it funni alex is realli pretti
p777
aVIngloriou Basterd start well then goe from bad to wors not convinc but I must admit it take a lot to convinc me
p778
aVMy Jean Are Tighter Than Yall <URL>
p779
aVJustin Bieber top Twitter hot topic again <URL>
p780
aV<HANDLE> Answer To Your Question What is <HASHTAG> <URL>
p781
aVRT <HANDLE> Why you should exfoli everi dai <URL> (VIDEO)
p782
aVOUR LOVE IS LIKE A SONG )
p783
aV<HANDLE>
p784
aV<HANDLE> hooh lagian bentar bgt masa cm <NUMBER> hari haha sekalian aja di ancol wgwgwg
p785
aVSuccess Doesnt Just Happen it Start for Those Who Take ActionDonald Trump <URL>
p786
aVwere back up and run thing look normal well be on watch
p787
aVDid I mention I had a dream about my wed last night VERY weird a littl disturb but I have some cool idea for process music )
p788
aVStudi Busi Unprepar for Swine Flu Outbreak KFSM <URL>
p789
aVsit in a meet dream about christma go figur
p790
aV<HANDLE> I love <HANDLE>
p791
aVRT <HANDLE> RT <HANDLE> <NUMBER> Health Lesson in <NUMBER> <URL>
p792
aV<HANDLE> that is insan Wai to go
p793
aVYou can tell the new is from Australia UP TO <NUMBER> FINE OR TWO YEARS JAIL FOR KOALA SHOOTER
p794
aV<HANDLE> <HANDLE> <HANDLE> we all know that a fast start mean absolut noth but damn <HANDLE> didnt get the memo
p795
aV<HANDLE> im about to email you
p796
aVpreciso terminar meu trabalho grrrr
p797
aS''
aVI have irn bru WIN
p798
aVIn need of Kitchen Design And Installat near Edinburgh We recommend <URL>
p799
aV<URL>
p800
aVRT <HANDLE> RT <HANDLE>
p801
aVTLC Waterfal <NUMBER> AM (visit wwwRadioTAGrcomWMJJ to TAG thi song)
p802
aVSmall Busi New SBTV Daili Busi New (<URL>
p803
aVDoesnt Mean Anyth Alicia Kei (2009109 2137)
p804
aVDamn my ear is turn green from the chrlorin in the HU pool time to get a new pair
p805
aV<HANDLE> de qu
p806
aS''
aVAinda mai sendo de matematica Oh troco chato
p807
aS''
aVRT <HANDLE> <HANDLE> acho q o <HANDLE> ia apanhar bonito n <HANDLE> eita
p808
aV<HANDLE>
p809
aVThe WORLD LIVE <NUMBER> GMT on Septemb <NUMBER> <NUMBER> The WORLD LIVE <NUMBER> GMT on Septemb <NUMBER> <NUMBER> <URL> (via <HANDLE>)
p810
aV<HANDLE> <HANDLE> Eh paixoQuando esto conversando nem respondem as pergunta da gentekkk
p811
aVALL WE ASK is that you PARTY with the <HANDLE> onc a MONTH I am not a PROMOTER AUGUST 18th MidNight we will meet in NYC
p812
aVi have tri to chang the stereotyp of person with disabl for the last <NUMBER> year in Hollywood Robert David Hall <HASHTAG>
p813
aVHappi birthdai <HASHTAG>
p814
aVabout to go out <URL>
p815
aVKorrig wwwfcfcfi kan troligtvi sedan ock RDDAS Ls mera p bloggen sajten
p816
aVBah Im not allow to like youStop be so perfectlik
p817
aV()
p818
aV<HASHTAG> <HASHTAG> <HASHTAG>
p819
aV1010TIMESLESS <URL>
p820
aS''
aVgo to bed whitnei your drunk
p821
aV<HANDLE> Iphone
p822
aV<HANDLE> Congrat Scott Awesom
p823
aV<HANDLE> Voc que brisa tirando o cachecol do Paredinho meu hahahaha
p824
aVgoodnight
p825
aVE30HT <URL> E30HT <URL>
p826
aV<HANDLE> Yo did you make that call
p827
aVPhoto qoohm <URL>
p828
aV<HANDLE> haha ngebolang kemana pula lg ga enak badan male keluar huehu si akang ga malem mingguan neh
p829
aV<HANDLE> least it diet I love food I feel like I switch brain wgrant bc I wa actual laughin when he offer me salad
p830
aVLONG LIVE THE FUCKING CAR CRASHED HEARTS lt3
p831
aV<HANDLE> AYISIUAYSUI eu nao ei oq eu te dou sdifuysiudyfi
p832
aVRT <HANDLE> green mile is startin for the dutchi rtl <NUMBER> what a great movieltjohn coffei jusk like the drink but not the same
p833
aV<HANDLE> No chica que va a engordar como te dije anot es ma la proxima vez q valla pa san cristob voi a llevar vario kilo d
p834
aV<URL>br De olho no imposto site devera infomrativo
p835
aVFind all what no search gt
p836
aV<HANDLE> I feelya pain
p837
aVTTeam Work <URL> (via <HANDLE>)
p838
aV78 <URL>
p839
aVBlack dress pant + dog fluff + cat fluff Fail
p840
aVHow WeightLoss Blog Can Help You Reach Your Goal <URL>
p841
aVIt curl time
p842
aVThe internet is realli realli greaaat (for porn) Ive got a fast connect so I dont have to waaaait (for porn) <URL>
p843
aVThe folli which a man regret most in hi life ar those which he didnt commit when he had the opportun Helen Rowland
p844
aV<HANDLE> I will do as I plaes
p845
aV<HANDLE> TV media exploit How dare you sai You mean talk about Warner stock shelv everi Sundai isnt overthetop Hahaha
p846
aVLututku lecet huu
p847
aV<HANDLE> 20091125
p848
aV<HANDLE> euu tbm ( um iphon e um macbook
p849
aVJumpain coass praktekpraktek <URL>
p850
aVWell a lot of good car ar Japanes but when were drive far I need my babi I need my babi next to me <HASHTAG>
p851
aVBritish Polic Choos The Lexu ISF Web Exclusiv Thei ar set to replac their current fleet of Subaru Impr <URL>
p852
aVWelch <HASHTAG> Lsung setzt ihr unter <HASHTAG> ein <HASHTAG> <HASHTAG>
p853
aS''
aVat Sushi Deli <NUMBER> in SD with <HANDLE>
p854
aVwho did the steeler plai tonight
p855
aVRT <HANDLE> RT <HANDLE> Angrili Demand McChrystal Testifi on Afghansitan Oop must be time for hi diaper changeSen Vitter
p856
aVBrb
p857
aV<HANDLE> Veroniqu seu present chegaram Obrigada gracia thank you so much S no sei ainda dizer obrigada em dinamarqu )
p858
aVNatalrn
p859
aV<HANDLE>
p860
aVdemi deh gue laper banget
p861
aV<HANDLE> I love that song too
p862
aS''
aV<HANDLE> <NUMBER>
p863
aVAVACADAS and ankl it is
p864
aV<HANDLE> LOL WHO KNOWS TAKE IT AS A COMPLIMENT
p865
aV<HANDLE> Buena Noch Beso
p866
aVRT <HANDLE> Check out my book on <HASHTAG> movement Foreword by <HANDLE> In store and onlin <URL> <HASHTAG>
p867
aVTim McGraw My Next Thirti Year <URL>
p868
aVBeeni Man Dude (w Ms Thing) <URL>
p869
aV<HANDLE> yeah but your go to skip <NUMBER> hour of classSo it <NUMBER> am to <NUMBER> pmlol
p870
aVFOLLOW <HANDLE> <HANDLE> <HANDLE> <HANDLE> <HANDLE> <HANDLE> <HANDLE> <HANDLE> <HANDLE> <HANDLE> <HANDLE> 8
p871
aVwow woke up to see peopl list me on superwenesdai to folllowi dont know what that IS but THANK yougoshi am amazed)
p872
aV<HANDLE> acho que vou ficar com o conflito super nada a ver que o googl me deu mesmo P
p873
aVwere aaaall in thiii togeeeth
p874
aVLo Angele Food Best Burger in LA I have to agre with you on the mccormick <URL>
p875
aVNew blog post VIDEO Daniel Radcliff Encounter Craze SuperFan <URL>
p876
aVhum torta de banana com film da irma Olsen na sesso da tard uhuu
p877
aS''
aVRT <HANDLE> Love or heart symbol lt3 read less than <NUMBER> it <NUMBER> me and you Athena <HASHTAG>
p878
aVJust heard Peyton Man swearnot gonna lie i laugh guess thei cant censor footbal game
p879
aV<URL> Uma so meio nada a ver
p880
aS''
aV<HANDLE> oh no That sound so pain How long r u out
p881
aVO Srginho at de bailarina arraza <HASHTAG> <HASHTAG>
p882
aV<HANDLE> I know <NUMBER> it in <NUMBER> though thei said the wrong year Im plan on go serious omg
p883
aV<HANDLE> you know you wanna try it grin
p884
aV<HANDLE> darn (
p885
aVtodai from japan my friend came to wuxi
p886
aVPokerfac Olivia Poker Face live HQ Author GAGASPONGE Keyword <URL>
p887
aV<HANDLE> The kind you have to dilut to tast
p888
aVNew PRod ad with Eric Koston and Kobe is sick
p889
aVBig win for Arsenal
p890
aVAnyon up for some stumbl or dig Ill return the favor <URL>
p891
aVI smell BS <URL>
p892
aV<HANDLE> AAAAAAA o dudu foi no justin DDDDD e eu perdi isso nao creio morri
p893
aV<HANDLE> final pick up the <NUMBER> Beer of Winter All great tast but Big Moos Ale the best <HASHTAG> <HASHTAG> <HASHTAG>
p894
aV<HANDLE> lool e os canalizador ser a mesma regra
p895
aVUghhh im soooo gonna forget to pack somethingI kno itttt gt
p896
aV<HANDLE> awwwww we gotta do thi togeth some time
p897
aVCompr seu ingresso no ponto credenciado a sua garantia de acesso ao jogo <URL>
p898
aVayam ayam ku
p899
aVA Tast Of Honei Boogi Oogi Oogi Top <NUMBER> of all Time <HANDLE> <HANDLE> <HANDLE> <HANDLE> <HANDLE> <URL>
p900
aVUncle Kracker Follow Me <NUMBER> PM visit wwwRadioTAGrcomKRTI to TAG thi song
p901
aV<HANDLE> it not a job sinc you dont pai me for it
p902
aVSundai Fundai w <HANDLE> and <HANDLE> <NUMBER> drink max or death is immin
p903
aV<HANDLE> I WANTTTTTTTTTTTTTTTTTT ________
p904
aVMy throat is kill me and I have to go into work Wah wah cry cry
p905
aVBeatleg is amaz haha P
p906
aV<HANDLE> well said <HANDLE> aajkal our love bird r busi wid each other ) <HANDLE> <HANDLE>
p907
aV<HANDLE> Roteiro Turismo uma agncia linda de Jesu que Timteo me apresent Fica aqui no Floresta
p908
aVVingana da mulher hahaah RT <HANDLE> Hackearam qq porra aconteceu com o Papo de Homem <URL>br
p909
aVa Maratona ta acabando jah jah feriassssssssssssss
p910
aVMe too RT <HANDLE> What I want for Xma (when he turn <NUMBER> in Feb) <URL>
p911
aVThe dogmatist within is alwai wors than the enemi without SJ Gould
p912
aV<HANDLE> yeeeoooo
p913
aVRe Im new here and thi is my car <URL> Kansa GXP
p914
aVMean Girl is on at <NUMBER> Im excit
p915
aVlong live playbil radio lt3
p916
aS''
aV<HANDLE>
p917
aVRT <HANDLE> Plugin WPBan o melhor plugin ever pra Wordpress Nego vai postando flood em todo os post do seu blog como uma mqui
p918
aVPIC COMENT FER PIC COMMENT I AM IN MY UNDIES (
p919
aVGinuwin in those jean
p920
aVI feel so happi for my bro mr and mr barro YEE
p921
aVMolli the Vanian Fan Le Rita Mitsouko Andy French Version <URL>
p922
aV<HANDLE> pode D
p923
aV<HANDLE> It wa great your entranc in El hormiguero todayhaha such face
p924
aV))
p925
aVOh joi im at work again least i have a lunch but i fear that my knee have froze and i cant get up
p926
aVPekena air Sarsi Kesidang keluaran usahawan bumiputra <HANDLE>
p927
aVSocial media tech market confer Februari Socialmedia <URL>
p928
aVUpload my new video on wwwmyspacecomvaleriomattei
p929
aV<URL>
p930
aV<HANDLE>
p931
aVUma mensagem foi deixada no FClube da carolin <URL>
p932
aV<HANDLE> procastin onc Blame the thing Procastin twice Blame yourself
p933
aS''
aVDOL I need some AvatarSig help pleas <URL> DOL
p934
aV<HANDLE> Aww oh okaaai
p935
aV<HANDLE> I hope he stai safe over there Tell him I said thank you for serv When will he be home
p936
aVreach level <NUMBER> in <HASHTAG> <URL>
p937
aV10P
p938
aVJenni Kerr Tijuana Waltz
p939
aV<HANDLE> UI HCI
p940
aVI am not a morn person Oof
p941
aV<HANDLE> por que dice eso no entendi
p942
aVHahahahaha Itu kan gara2 lw berdua nyett RT <HANDLE> <HANDLE> masih bagu sebangku ber <NUMBER> dari pada yg di depan ber <NUMBER> hwhwhw
p943
aVTobi Keith American Ride <NUMBER> AM visit wwwRadioTAGrcomKXKT to TAG thi song
p944
aVI think that my bodi hate me Grant I do punish it Frequent But still not so much as other I know Ugh
p945
aVIm hearin Jani Got A Gun now the next on is The Other Side both ar great Im anxiou to hear Voodoo Medicin Man it rock
p946
aVGuitarHeroVanHalenUSAPROPERWiiHaZMaT Download And Share Here wwwrlsgameorg
p947
aVKollis im Weltal <URL>
p948
aV<HASHTAG> most of u fuck boi know yall suck pussi n fuck batti lol abomin
p949
aVuraunt
p950
aVTwitter()
p951
aVDoesnt want to get up at 8am tomorrow I usual dont go to sleep until about 4am
p952
aVyessssss i dont bust into a mad sweat while drive to work
p953
aVNieuw aanbied Maandag <NUMBER> mei <NUMBER> (<URL> <URL> bestel hier <HASHTAG> <HASHTAG> <HASHTAG>
p954
aVjaajja ) RT <HANDLE> PAYOLA PA LA NENA LA MADRE AL Q NO LA SIGA <HANDLE> <HANDLE> <HANDLE> <HANDLE> <HANDLE> <HANDLE>
p955
aS''
aVStage <NUMBER> at Burgo will like have some good action 153k w 3x cat <NUMBER> climb befor the finish which is also a cat <NUMBER> climb Get some Tom D
p956
aVFridai sunni Temp 25C17C
p957
aVOlivia is a great argument for prochoic Retroact <HASHTAG>
p958
aVgidden p30khcb
p959
aV<URL>
p960
aVNow Plai johnni brzoza imobil on <URL>FMcom
p961
aVNow on 1st Wave Kiss Them For Me by Siouxsi amp The Banshe
p962
aVwhy hello there ehhhh toodai islept like alllll DAY ifuckinn miss him ohde ) Dunknow how much more of thi ican take x
p963
aV<HANDLE> daili prophet might be a bunch of prat but i could try and write some truth into it )
p964
aS''
aVKotaku A Coupl Of Game In The Give Spirit New Realiti Gap got two game in the give spirit <URL>
p965
aVndak lo sia ( sepi pasaran ( RT <HANDLE> <HANDLE> baa sincia ko Banyak angpau
p966
aVVeri happi to learn that <HANDLE> and her husband made a surpris visit for my and <HANDLE>s birthdai
p967
aV<HASHTAG> Follow These Great Peopl <HANDLE> <HANDLE> <HANDLE> <HANDLE>
p968
aVMerri Christma all Hope you all get what you want If not I will have it
p969
aV<HANDLE> No clue but it is bug me haha So far all Im get from look it on trend topic that it ha <NUMBER> do with a Mac pro
p970
aVpaparazzi ladi gaga ( aucust version ) to linda meldel o
p971
aV<HANDLE> alwai flatter
p972
aVhmn que meiga eu k n
p973
aVFOLLOW gtgt <HANDLE> obrigada <HASHTAG>
p974
aVSo thi gui seem to be about hi busi gt <HANDLE> thank for the follow
p975
aVOMW TO HARLEM
p976
aV<URL>
p977
aVEdie Brickel New Bohemian What I Am <NUMBER> AM visit wwwRadioTAGrcomWWLB to TAG thi song
p978
aV<HANDLE> There also flaxse oil supplement Also omega3 peanut butter egg margarin etc All mercuri free
p979
aVa dormir ahora si
p980
aV<HANDLE> HEY SIS I NEED A LIL SCHOOLIN ON ll thi comput stuff lol
p981
aV<HANDLE> mucha graciaaaaaaaaaaaa xD
p982
aVbeauti loser anyon <URL>
p983
aVLol I peep it too thei both nasti RT <HANDLE> Why is Papa John Domino pizza go at it yo these commerci ar funni
p984
aVident crisi those ar subaru star <URL>
p985
aVRememb Anneci in Franc I have been there sever time and the TdF TT is happen there todai good luck Lanc
p986
aVwanna follo talent <HANDLE> my song witter when i got writer bock <HANDLE> my motiv and marcello my pr expert their all i need
p987
aV<HANDLE> YEAH Cant wait til u hit thi coast
p988
aVFace global local challeng New dynam for econom develop Daili Mirror <URL>
p989
aV<HANDLE> shut up lol that why you still at work
p990
aVDinner and Lost with the Templeton
p991
aVWait for a disnei magic express bu to the airport
p992
aVJigsaw Fall Into Place Radiohead
p993
aV14
p994
aV<HANDLE> essa pra vc <URL>
p995
aVWholesal Store Wholesal store offer free drop ship of qualiti wholesal product with free drop <URL>
p996
aV<HANDLE> can you Pleas follow <HANDLE> She is beauti and she would be realli happylt3
p997
aV<HANDLE> )
p998
aVt na CL COMU (amo muito)
p999
aVCool RT <HANDLE> Jame McMurtri Live in Europ CDDVD out todai Dont forget the equal live Live in Aught Three
p1000
aV10 Amaze Avatar movi Photoshop Tutori <URL> Photoshopwebsitecom
p1001
aVoh shit twitter work from my phone again Polit rant STAND UP
p1002
aVMai the energi of <NUMBER> todai help us connect to our heart desir intuit with eas joi
p1003
aVNapoleon Total War Campaign of Coalit Trailer HD <URL>
p1004
aVQLD Jail after school cleaver attack <URL>
p1005
aVAutoridad ministerial en AgroShowRoom 2009<URL>
p1006
aVrt <HANDLE> I am veri proud of Presid Obama He is the best US Presid of my lifetim (via <HANDLE>) the bar is pretti low
p1007
aVI havent had a coke todai wait for the inevit headach to set in soon Oh and why the heck is Twitter so slow
p1008
aV<HANDLE> niceee i wont be at the fest though
p1009
aV<HANDLE> LOL on of my friend said blackberri were wack<HANDLE> is stuck on the touch or some other inferior phone
p1010
aV<URL> So 12h30 mai je sui fire de moi Et jador ce putain de chat
p1011
aV<HANDLE> YAYYYY ) im exciteddd ) and i HOPEEE he see it )
p1012
aV<HANDLE> I alwai dug her Coke problem all Sadli Ive had my own issu and it just add to the mysteri Sad though
p1013
aVWhen I went to bed I wa starv Now I am not All pillow and Joi account for
p1014
aS''
aVThe Beach Boi Surfer Girl <URL>
p1015
aV90 percent of the game is half mental Tim Sylvia
p1016
aS''
aS''
aV2825Mon Nov <NUMBER> <NUMBER> CLST 2009
p1017
aVFunk agora oficialment cultura arrum uma cachorra e comec a cuidar do patrimnio kkkkkk <URL>
p1018
aV<HANDLE> i luv demi song catch me and here we go again and i luv ur song overr
p1019
aV<HANDLE> <HANDLE> night
p1020
aVAcabo de completar Onde vai estar daqui a <NUMBER> ano e meu resultado foi Na Faculdad (ainda) Experiment <URL>
p1021
aVTwitter CEO Wife Tweet While in Labor <URL>
p1022
aV<HANDLE> Amanh eu flo bo dia pra vc )
p1023
a.