(lp1
V<HANDLE> Herbs referring to me Judy We met today  the Playhouse See you tonight for the show )
p2
aVSick My tummy really really ache Uh (
p3
aViTunes1
p4
aV<HANDLE> have fun bro
p5
aV<HANDLE> kinda but it could have been an epic night if i didnt have to babysitwhat are you still doing up
p6
aVyou know im no good
p7
aV
aV<HANDLE> lo son
p8
aVBraised short ribs in a beet chipolte sauce try it with one of our new Malbecs by the glass
p9
aV<HANDLE> im waiting for that apple store eri mean l Pod Boutique you know with no DRM cause otherwise theyll burn your car
p10
aVA Few Clouds and <NUMBER> F at ChicagoOhare IL Winds are from the Southwest at <NUMBER> gusting to <NUMBER> MPH (9 gusting to   <URL>
p11
aV<HANDLE> MV  (  Im really looking forward to <HASHTAG> Oh there was some good bullriding on the tube this weekend
p12
aV<HANDLE> yes im in MD now  just graduated collegetrying to move to NYC within a year  is char going on tour who is brie a 2nd child
p13
aVZZZZZzzzzzzzzZZZZZZZzzzzzzzzzzZZZZZZZZZzz at work
p14
aVDikira lg party_RT <HANDLE> Wiiiiw gotcha <HANDLE> <HANDLE> <HANDLE> and hazbie  <URL>
p15
aV<HANDLE> manda teu msn no DM
p16
aVRT <HANDLE> <NUMBER> hrs of autocad ahead take that any day over minding <NUMBER> kids
p17
aVRecently snapped photo <URL>
p18
aV<HANDLE> zaterdagochtend zijn we in Tilburg Ik moet weer getrimd worden en dan naar Dordrecht om de messen weer te laten slijpen
p19
aVGo make some noise RT <HANDLE> Off to Il Lido for lunch with <HANDLE> Singapore too quiet during CNY
p20
aV<HANDLE> <HANDLE> I  have the bones of a brontosaurus  Nothings gonna snap these puppies
p21
aV<HANDLE> my summer semester starts today Not until 4pm tho
p22
aVLooking for a SPA retreat in Thailand<URL>
p23
aV<HANDLE> WHERE DA PARTY 
p24
aV
aVmm como que me siento mal S noo no me quiero enfermarrrr
p25
aV<HANDLE> aaaaaaaaaooow that might just be the move
p26
aVtornatoalla ricerca di un libretto di assegni
p27
aVIn Pinks video FunHouse as shes dancing in the desert her blond hair slowly turns black at the tipsAWESOME
p28
aVAbout to try <HANDLE> s moms cooking Heard its legit
p29
aV<HANDLE> Desculpa mas eu procureui no google quem  Brittney Murphy 
p30
aV<HANDLE> yo se q lees a mi hermana gtgt <HANDLE> cuando te escribe sus lokeraaa ahaha siertooo
p31
aV<HANDLE> Good morning sexy thang
p32
aVJust over <NUMBER> hour left to purchase a Pot O Gold Raffle ticket Purchase online at wwwthegenesisfundorg or call us <URL>
p33
aV<HANDLE> 
p34
aV<HANDLE> DING and make me that cool head thing
p35
aV<HANDLE> yes i think
p36
aVACORN Advances in New York Tied to Absentee Ballot Fraud <URL> <HASHTAG>
p37
aV<HASHTAG> <HASHTAG> Kenneth Starr introduced as Baylor president  Baylor Universitys new president Kenneth Starr said Tu <URL>
p38
aV    <URL> <NUMBER> 024016
p39
aVExchange of shoes
p40
aVI think I am in love with the Tokina 1116mm So sexy
p41
aVPhoto at earwax Ill have what hes having <URL>
p42
aVLa Rueta a Son Gotleu sota el lema Naturalesa i medi ambient <URL>
p43
aV<HANDLE> Oh Man Sue em
p44
aVi going to collage tomrow i have a exami hope i do wellthen this mums going to  collagehuge achivment
p45
aV<HANDLE> THANK U HUNN
p46
aVthat bzzz on arthur2de is annoying XD
p47
aVFord Offering 3GConnected Dashboard Computers in <NUMBER> Trucks Cars  Ford continues their push for techfriend <URL>
p48
aVMultiplayerit Audio Podcast <HASHTAG> I videogiochi sono la nostra droga <URL>
p49
aV<HANDLE> I have no experience with Ebay  I think contacting your buyers is just a normal way to deal with your business
p50
aVTony Romo Reveals Jessica Simpson Date Night Details (source ET Online) <URL>
p51
aVTime for small group then meeting with Kurt and talking about life )
p52
aVAnd though i know i should be good
p53
aVI am listening to Adam Lambert on SIRIUS online He is DJ and getting to hear his songs from FYE
p54
aVjam lima
p55
aVFuturo de Ribery no Bayern ser decidido em maro  Concordamos em nos reunir no ms que vem para tomarmos uma dec <URL>
p56
aV<HANDLE> 
p57
aV<HANDLE> Hmmm i think Mandy should totally be you OMG yes that would be better and I can be a blonde and be Miley n u should be Zac lol
p58
aVNow Playing <HASHTAG> ScottA Long Walk
p59
aV
aV Live Like Were DyingKris Allen 
p60
aVNice to meet you Honduras vs US hardly a replay  The Associated Press  <URL>
p61
aV<HANDLE> The Mkt is correcting nowTiming Mkt doesnt workU can use09March lows as a referencelook 4chart similaritiesMoney hiding
p62
aVHello world Im so peppy 2day <NUMBER> some unknown reason
p63
aVSMIDIG SOM EN KATT
p64
aVsama sama sabet tayaang mauh RT <HANDLE> <HANDLE> <HANDLE> <HANDLE> happy new year sayang D
p65
aVwere at <HANDLE> its a bunch of baseball topics apparently which is fine with me because well tear that up
p66
aVNew blog post How To Watch NCAA Sports Games Online For Free <URL>
p67
aV<HANDLE> i was blubbing like a baby last night when i watched that
p68
aVMorning Yall I kinda got up late oh well
p69
aV<HANDLE> remind me to tell u ) xx
p70
aVThe poop is in the puddiing
p71
aV<HANDLE> cant wait to watch love actually
p72
aV<HANDLE> iylumayanlahdari tgl 10Febampir sblnlmyn bwt nguras duit gwhahaha
p73
aV<HANDLE> XHILL OUTKORREKTION MY HOODLUM FRIENDS UR BESTIESHA HADO DAT EVERYWHERE LOLOLOL
p74
aVhaha you make itt soo obvious(
p75
aVis listening to Your New Twin Sized Bed by Death Cab For Cutie from Narrow Stairs <HASHTAG><HASHTAG><HASHTAG>Pr
p76
aV<HANDLE> 
p77
aV<HANDLE> leave her alone
p78
aVOk i kept seeing twits about david cook and the script and was thinking well thats a shitty band name
p79
aVRT <HANDLE> Today is national cupcake day What is your favorite <URL>Isnt every day cupcake day
p80
aV
aV<HANDLE>  the importance of the network of people they follow Twitter (with no network) is useless
p81
aVI REALLY forgot what its like to wake up at <NUMBER> in the morning 
p82
aV<HANDLE> preciso falar com vcc
p83
aV<HANDLE> If you think we have treated black people fairly throughout history Your fucking nuts  <HASHTAG> Beck
p84
aVim sick and tired of jugglin and still cant find the <NUMBER> when i find that perfect shawty i swear that im done
p85
aV<HANDLE> yeahI just am not feeling it with the other story  I am scrambling for another story line
p86
aV<HANDLE> that gun charge from 07
p87
aV<HANDLE> im wearing hollister jeans today xD
p88
aVAl Haig fmr Secretary of State of course
p89
aVnothing
p90
aVRT <HANDLE> Tai Shan will be going to China in <NUMBER> Well miss him lots Hes done so much for panda conservation httpsnurlc 
p91
aVRT <HANDLE> A STRAIGHT FORECAST Racing Profiler named 1st and 2nd at Leicester <NUMBER> today at <URL>
p92
aV<HANDLE> Get a whip and well ALL GET TATTED 
p93
aV<HANDLE> sounds like a great night full of great food
p94
aVi love parental control its so staged and cheesy guilty pleasures
p95
aV ming and ipoding 
p96
aVUS urges allies to send trainers to Afghanistan  AFP <URL>
p97
aV<HANDLE> Me too I didnt realize that it was all Taec and then SNSD XD
p98
aV        
p99
aV<HANDLE> hahaha danny and me are down to go
p100
aV<HANDLE> YEs hun x
p101
aVI am seeing people like you everywhere
p102
aVNew blog post ltbgtMusic In Control  FearFM PresentltBgt DJ UNIQUE (290909) <URL>
p103
aVes
p104
aVThats always a good thing Lol <HANDLE>
p105
aVat work cant wait to get outta here Im outside on a smoke break n its about to rainI see the clouds comming been raining all week
p106
aV
aVPasti krn terlalu keterlaluannya kangen sm akuRT <HANDLE> dua kotak susu ultra milk sudah ludeessgatau krn setress apa dasarnya maruk
p107
aV<HANDLE> im super mad at you   you let me down at least you can do is text me back
p108
aV<HANDLE> NOTHIN BESIDES CLASS
p109
aVMOONGIFT  iPhoneiPod TouchMover <URL>
p110
aV500 parliamentary votes recieved after results announced Mvume Dandala to be president <HASHTAG>
p111
aVArrgh this is why I dont like to sign on to MSN No thank you I do NOT want to visit your room
p112
aV<HANDLE> awwh why sweetie Im good D all my friends are alive I thought one died
p113
aV<HANDLE> endnote export for grasses <URL> (but afraid theres no dois or urls in there ) )
p114
aVPeculiarities of our nation existed even then bt evry1 had high tolerence RT <HANDLE> What Id give to be in the days led by TunDrIsmail
p115
aVQuando vou escolher um filme p assistir prefiro aqueles com enredo bem desenvolvido trabalhadoAmo os clssicosGosto de obras imortais
p116
aVUS
p117
aVwatching <HASHTAG> finally
p118
aVWheres the LAAAAAA
p119
aV<HANDLE> raises hand woooohoooo right hereeee
p120
aVOk so an update I may have been premature in all my shove it up your ass involved tweets Turns out drunk people sometimes exaggerate
p121
aVUHUUUU DE VIRADA  MAIS GOSTOSO
p122
aVPEOPLE ARE DUMB THE END
p123
aV<HANDLE> thanks for the Rags Consigments love  we love you all too
p124
aV<HANDLE> Gran Open
p125
aV<HASHTAG> a chic got fresh ass sneakers esp jays
p126
aVRT <HANDLE> The Gypsys Guide My Three BestKept Travel Secrets for <HASHTAG> <URL> <HASHTAG>
p127
aV  <URL>
p128
aVRT I dont miss Flash on my iPhone Dont we have enough problems with Flash crashing our desktop <HASHTAG> <HASHTAG> <URL>
p129
aVshhhhh
p130
aV
aV<HANDLE> 
p131
aV<HANDLE> Indeed i am )
p132
aVwatching a movie
p133
aV<HANDLE> and i are being pretty hyperactive in boilogy today hahah i wanna run and push her on the flooraasfa is BORING gimmedatpen
p134
aVLes Miserables  On My Own  nekel babalujza  <URL>
p135
aVen esas cosas del amorrr ajjajaj
p136
aV<HANDLE> its my cell phone lol
p137
aVbodoh ngilang
p138
aVChillin in the crib feeling sore ughhh no pain no gain i guess
p139
aV<HANDLE> pls forward my happy mothers day to your mommy beloved wife and sistas )
p140
aVmonituid392 <URL> loaded in <NUMBER> seconds
p141
aVAffiliate marketing guidelines  Geoff Hadley<HASHTAG>s Blog <URL>
p142
aVListening to the Sound of da Police station on <HANDLE>  <URL>
p143
aVRT <HANDLE> <HANDLE> what can I do to support <HASHTAG>  using that hastag tomorrow at <NUMBER> )
p144
aVMonday morning  business as usual (and coffee)
p145
aV
aV<HANDLE> No el mio era un cocker y no se dormia en los calcetines a el le gustaba meterse bajo la cama
p146
aV<HANDLE> how many did u manage to skip on the 171km of all stoppers
p147
aV<HANDLE> hsaeushaeushe
p148
aVMaaf ya kalau gua RTnya salah hehe ini eror
p149
aV<HANDLE> I LOVE THE SAINTS TOO WHO DATYOU DAT please follow me
p150
aVAll new Club Penguin Cheats and Secrets available at <URL>
p151
aVReviews of The Hair Room Studio Plano <NUMBER> <URL>
p152
aV<HANDLE> 
p153
aVWriting
p154
aVGabis not coming to the concert now that means Janie can have her ticket woo sucky she isnt coming though(
p155
aV<HANDLE> that song is like <NUMBER> minutes long the full version (imma be thing) P
p156
aV (The man who stares at the goat)    <URL>
p157
aVArticle Your LinkedIn Profile When Youre Unemployed George is just one of the job seekers who have written to me <URL>
p158
aVMe n Ms Pee in the AM crzn CO in the convert  (lt
p159
aV<HANDLE> lol new york
p160
aVNova Vaga de Emprego Recepcionista com Experincia <URL> <HASHTAG> <HASHTAG> <HASHTAG>
p161
aVRT pontamojya  TwitJuke  pv BUMP OF CHICKEN <URL>
p162
aV<HANDLE> Good morning )
p163
aVRescued horses responding to diet of TLC <URL>
p164
aV
aVBeen on the phone to the devil (dell) for  <NUMBER> minutes <NUMBER> of those were tacky hold music Wtf
p165
aV<HANDLE> We all do Economics sucks sometimes
p166
aV<HANDLE> have fun )
p167
aVBrought Rylan to Shars school to have lunch with mommy
p168
aVSluggish Tuesdayas usual
p169
aVMe Do you cycle much Yoof Not anymore Me Why not Yoof Freerunning Fair enough
p170
aV<HANDLE> Existem coisas piores )   Human Target  bem genrica mediana normalzinha ou simplificando esquecvel na hora
p171
aVBlog anyone heard of I <URL>
p172
aV<HANDLE> wwwwwwww
p173
aV<HANDLE> Exactly
p174
aVFor future reference the poppy seed filling in the deli case at the Butcherie in Brookline makes incredible hamantaschen
p175
aVI cant stop eating jalepeno peppers So spicy it hurts but Im still addicted
p176
aV<HANDLE> ahaha ill never missem they not goin anywherei mean i dnt club ne more (like i use to but we <NUMBER> now)so we find other thngs 2do
p177
aVWatch this vid and see how Google and Android is going to pwn the GPS market <URL>
p178
aVse nao conheso  (<HANDLE> live on <URL>
p179
aVIf you use linked server queries you need to read this <URL>
p180
aV<HANDLE> PUUUUUUUT
p181
aV<HANDLE> Fala primo devo ir pra Caldas Novas com a turma da academia vai ter festas do dia <NUMBER> a <NUMBER> Mas vamos ver  uma opo tb
p182
aV<HANDLE> hj nao posso abusar amanha tenho auto escola logo cedo se chegar la zuadao danouse hahuahuahu hj eu paro de beber huahuahuahuahu
p183
aVHat Check Hoodie Check Long pants Check Ok ready for bed
p184
aVCheguei hj na UFAM as <NUMBER> horas pra soh ter aula as 1500h e eu ainda tenho ki sair de lah as <NUMBER>    Em outras palavras Dia perdido
p185
aVLasagne was super lekker Echt een aanrader Topiejopie Zometeen even naar huis rijden en quantum of solace kijken
p186
aV
aVMarco Di Marco  Take Off (nicola Conte Remix)
p187
aVTruth in movie advertising A shocking concept Only in this crazy world would people be hailing a new list of  <URL>
p188
aVTechnics SL1200MK5 Turntables for Sale Brand New in the box RT <HANDLE> <HANDLE> <HANDLE> <HANDLE> I have receipts too
p189
aVahhhhh just finished watching the season finale of true blood i love vampires whether they sparkle or not and carpathians _
p190
aVi hate printers and having no bread and people being in hospital stressy day
p191
aV<HANDLE> mmmwine
p192
aVCOD Cod Mw2 Multiplayer Crack Cod Mw2 Multiplayer Crack Hello i am requesting a crack that allows pirates to <URL>
p193
aV75
p194
aV<HANDLE> Ohlmao youre saying on Twitterlmao he is my background on my computerlmao
p195
aVProblem Contact dry out as soon as I get in front of a comp screen  Why  This wasnt always the case  Ive tried three different brands
p196
aVDo you think its possible to have so much money you could have a video game created based on what u want and no other copies made
p197
aV<HANDLE> 
p198
aV<HANDLE> I am flying back to Dallas at 550pmWhat are you coming here for
p199
aVFluent News Is the Sun Missing Its Spots <URL>
p200
aVRT <HANDLE> Tem pessoas que em plena sextafeira prferiado acordaram azedas Uma pena
p201
aVobviously
p202
aVDylan has left for Portland and I feel like such an asshole Great day Fuuck
p203
aV<HASHTAG> <HANDLE> <HANDLE> hm <URL>
p204
aVZet Pocket Piano (Joakim remix) van DJ Mehdi op  <URL>
p205
aV               +_+      
p206
aV Luna Sol  Diapow
p207
aV<HANDLE> 
p208
aVSpitting on the cowboys star KEEP IT CLASSY EAGLE FANS YALL SUCK
p209
aVRT <HANDLE> Change out stored water every <NUMBER> months <HASHTAG>
p210
aVRT <HANDLE> RT <HANDLE> RT <HANDLE> Iklan di uber suka kepencet_
p211
aV<HANDLE> voc no quis dizer nunca mais coloco o p na casa da vivian porque liguei l meia noite e o pai dela atendeu  )
p212
aVjust joined a video chat with <NUMBER> other people at <URL> <HASHTAG>
p213
aV<HANDLE> damn i just looked at it I really butchered it Hahaha
p214
aV<HANDLE> Could be worse they could use ur which is just plain irritating
p215
aVIm chill with this
p216
aVcurrently home nu10 <NUMBER> doo boreed az fucc
p217
aV
aVeee isso ai agora e Cruzeiro rumo ao ttulo 
p218
aVguten morgen twitter Gut geschlafen
p219
aVFrom SpeedTV <HASHTAG> CUP Hendrick  Hiring Martin A Dream Come True Hendrick Motorsports M <URL>
p220
aVSwitching to vodka  bad news
p221
aVhaha valium
p222
aV 
aVSmokking W Da GodSister <HANDLE>  N <HANDLE> Yessss
p223
aVguyzim so sorry for not tweeting for <NUMBER> dayscuz i still need to do my assignments and i still need to write my history report
p224
aVyu needa <HASHTAG> i should <HASHTAG>
p225
aVRT <HANDLE> Theres a battle within that I will never win Its me that Im up againstIts my heart versus common sense
p226
aVI need to have this bamboekarpet on wwwonestopshopnltwe0e971596d4f2ad1f97fca0e9baf9907
p227
aV<HANDLE> 
p228
aVRT <HANDLE> Nails and pediiii ) Ayo that nigga really was him u heard they caught him
p229
aV<HANDLE> best wishes muffin
p230
aV<HANDLE>  to pane lever imper tot zordi
p231
aValarm just went off i woke up forever ago should be out in TWENTY
p232
aVCross departmental cultural awareness training is a great way to ensure that you service your multicultural audience successfully
p233
aV de primeira grandeza e no campeonato no qual os principais times no participam  concluiu  Joo Paulo de Jesus Lopes RINDO no tel
p234
aVIf you trying to get more followers go to <URL> You will get <NUMBER> followers fast
p235
aV<HANDLE> es parte de la psique de  los hombres
p236
aV<HANDLE>   so of my friend are teacher in the Chicago school district   so I know how challenging things are
p237
aVkalo New Moon jadi trending di twitter apa kabar film IndonesiaAtau harus berharap banyak dari Julia Roberts Go Indonesia Movie
p238
aVGoogles Social Search experiment goes live googleblogblogspotcom via  Googles Social Search experi <URL>
p239
aVdique your voice sounds sexy ummm no this raspy shit is not working for me lol
p240
aV<HANDLE> Awesome I have just about <NUMBER>  Should be okay then )
p241
aV<HANDLE> I put all forms through akismet  Bribe Chris to do it )
p242
aV<HANDLE> Greeaaat  My problem is I buy the entemanns donut holes and I eat them  <HASHTAG>
p243
aVHmmterperangkap d tempat ini gk ada hiburanngenet sampe mampus lah
p244
aV<HANDLE> Try ExLax
p245
aVnow playing  miss poopie by jimmy mcgriff on <URL> all <HASHTAG> <HASHTAG>
p246
aV
aVGoodnight my Twitter friends Today was a good good day
p247
aVNew blog post Trinumeral <NUMBER> <URL>
p248
aVNew blog post VI GOSTEI BLOGUEI  DESFILE DA ltbgtFES <URL>
p249
aV<HANDLE> een band met slechte nieuwe plaat kan live nog wel steeds de moeite waard zijn (Vind m zelf trouwens wel de moeite)
p250
aVNitens holistic world Gods healing When God created man He was happy with the work and even said it was g <URL>
p251
aVOh semua ini gara2 acara keluarga yg sedikit hell
p252
aVRT <HANDLE> <HANDLE> Im Burnt  One of the best westcoast tracks out PERIOD
p253
aVConociendo la historia y cultura de las Islas Canarias Sab<HASHTAG>as que los pobladores de las Islas Canarias t <URL>
p254
aV<HANDLE> ohh damn ( Well my dad is able to drive to the city on tuesdays and thursdays anyway with his job so it just worked out like that
p255
aV<HANDLE> yeah but I wish I could get it down more  Theres still about <NUMBER> in closing costs
p256
aV<HANDLE> we have a holiday sale on right now at wwwsumoloungecom Your kids would have fun with the Omni very versitile and durable
p257
aVWhat a loser
p258
aV<HANDLE> ipriiiittak baru baca tweetmuayyookkmakaan brgato jgn2 uda mkn km qta sms2an ajaa yaahhbb aku matinomernya aku DM
p259
aV<HANDLE> <HANDLE> 
p260
aVAdriana_Lima_Google_Images_1 Nelio Guerson amp Carlos Guerson  Brazilian Artists posted a photo <URL> (photo)
p261
aV<HANDLE> Yes I was just explaining to Dan that CAD used to be more ertica than prn
p262
aVshuuuuuuuuuuuuu retiro lo dichohace <NUMBER> das tena mi invitacin a Wave ya dganme lo que quieran s soy pava jaja
p263
aV
aVI keep telling my lighting designing honey that the Opening Ceremonies are where its at
p264
aVSeguimos esperando la llegada de nuestro seor jesucristo viene pronto
p265
aVDiazinho tedioso
p266
aVNew Moon Robert Pattinson to Get a Record Deal from Simon Cowell Deadboltby Larson Hill Alt <URL> Ad wwwcellpaysucom
p267
aVOMG jux gota call my tio had a heart attack leave the bar
p268
aV<HANDLE> estoy en 2do piso mafaka aca se siente mas machin
p269
aV<HANDLE> eat them
p270
aV<HANDLE> hehe thanks looking at your site see your on YouLicense how are you finding them
p271
aV<HANDLE> beh in bocca al lupo Sembra un posto meraviglioso ps se avessi budget ti assumerei io E assumerei anche la Juls
p272
aV<HANDLE> Well enjoy your vacation Patti what do you think of the Zatanna kiss  Any thoughts
p273
aVfell asleep  <NUMBER>  woke up a <NUMBER> going back to bed dang im tired 
p274
aV<HANDLE> Tranquil )
p275
aVPet Shop Boys  Opportunities (Lets Make Lots Of Money) <URL>
p276
aVtakurotter   <URL>
p277
aV<HANDLE> danar rebolation no inferno (6) HUASHUASHUASHUSA NNN
p278
aVT n n n  sei que eu no vou ser o primeiro e talvez no seja o ltimo a falar   Sophia  <HANDLE> <HASHTAG>
p279
aVNow playing Epic  Faith No More
p280
aV<HANDLE> <HANDLE> <HANDLE> In all our arguing all our competing about the computers we forgot whats most important Christmas
p281
aV<HANDLE> Que chow Avisa cuando vengas a Guadalajara va estara chido verte en vivo
p282
aV<HANDLE> Falaa facilitaVo te encomodar de novo No pedido <NUMBER> no veio o Edredon so o restante da compraTem como vc olhar
p283
aV<HANDLE> read the tweet shawty lmao it says I WANT the saints to win but I think the colts gonna winI WANT THE SAINTS TO WIN
p284
aVRS suinocultores buscam junto ao Estado a abertura do mercado Europeu<URL>
p285
aV<HANDLE> 
p286
aV<HANDLE> () 
p287
aV<HANDLE> <URL>  aww great )
p288
aV<HANDLE> lol yuh wuking up
p289
aV<HANDLE> Vasco Mulian sigue riendote en la cara de todos los televidentes del 13
p290
aV<HANDLE> Bc if a vibrator could make you breakfast in bed the human race would cease to propagate iPod pulsing safer for species
p291
aV <HASHTAG>
p292
aV<HANDLE> kemang  gua sekolah di darsal
p293
aVfinished reading book on Tati off to bed
p294
aVI will never understand why I can take apartput together something on my car have it start making noise do it again and noise goes away
p295
aV<HANDLE> Twinnyyyyy I wanna go away
p296
aVRT <HANDLE> La temperatura es de <NUMBER> gradosltlt en donde q aca morimos d frio jaja
p297
aValll time low ( the best damn band everand owl city <URL>
p298
aVi love the new <HANDLE> album bryce avary has been a major influence since i picked up the guitar and drums in <NUMBER> <HASHTAG>
p299
aVRT <HANDLE> Keep thinking of driven to tears by the Police too many cameras and not enough food this is what weve seen <HASHTAG> <HASHTAG>
p300
aVFive For Fighting  Superman  <NUMBER> AM visit wwwRadioTAGrcomWGER to TAG this song
p301
aV<HANDLE> where do u work that they have beer day
p302
aV<HANDLE> How much is it
p303
aV<URL>  BIRDMAN aint got sheeit on this  aww blk EVERYTHING P LIKE the ring
p304
aV<HANDLE> ai descupa gata  vi  deu pra responder
p305
aVageRT  RT <HANDLE> SWANTONE23  <URL>
p306
aVRT <HANDLE> note that Sen Lamar Alexander did not get an answer  yet  to taking reconciliation off the tablenow Speaker Pelosi s 
p307
aVSEO Nonpublic project <HASHTAG> by elusivegroup <URL>
p308
aVis And is and is and is
p309
aVCant leave the game alone the game needs me
p310
aV50504060200
p311
aVTalk to a man in a language he understands it goes to his head Talk to him in his language it goes to his heart Nelson Mandela
p312
aV<HANDLE> fuck him n his game haha
p313
aVi am so fucking sunburned  I am not happy about this
p314
aV2312 PM Temp  487F   Humidity <NUMBER> pct   Wind <NUMBER> mph W    in Syosset Long Island New York
p315
aV<HANDLE> LFA <URL>
p316
aV<HASHTAG> i got a bust it baby lol
p317
aV<HANDLE> hahahahahaha i know vv
p318
aVFunniest kidfeedback on Little Lion The Balloon has a hole in it <URL>
p319
aVahhhhh I knoooo Im soooo stoked
p320
aVAlso Im chilly von willy (not a gud combination)
p321
aVBestnye bila dapat ketemu kawan lamaa )
p322
aV<HANDLE> if she was anti christian ive just gained a whole new level of resepect for her
p323
aVA TOILET EXPLODED Poynter
p324
aV<HANDLE> is it vain to say im with stupid more often than im not
p325
aVNgantuk berat
p326
aVfairly sure that the time spent discussing MPs expenses costs more than the actual expenses let them have their pr0n2nd houses jeez
p327
aVmakin lama lagu2 di dahsyatderings makin nggak mutu ah
p328
aV<HANDLE> me neither  because buttons really arent cute  They just ARE
p329
aVwatching Twilight lt3 Robert Kristen and the director is commenting quite cool actually )
p330
aVMe gusta cuando muerdes tus labios como queriendo decir Oye T qu ests esperando (8)
p331
aVOris Kennt jemand das Baujahr dieser Uhr (ungefhr) Moin GemeindeFrage Wie alt knnte diese Oris Artelier <URL>
p332
aVWarWizard showing me some girl who might have autism on a BGOL post
p333
aVyou know that I can use somebodyyyyy  I love that song 
p334
aVI am so fascinated by this little snake It keeps poking its head out and then hiding again I LOVE IT
p335
aVR6 Join Mykonos accomodation for Mykonos Summer Holidays <URL>
p336
aV45 <NUMBER>  to Win Bot <NUMBER> <NUMBER> Outs 1__ Colby Rasmus advance error off pitcher Francisco Cordero
p337
aV<HANDLE> quanto tempo que no falo com voc principalmente por aqui 
p338
aVRT <HANDLE> <HASHTAG>
p339
aVAs a NeuroMuscular Massage Therapist I will not only give you specific massage I will show you homecare massage for you to do AT HOME
p340
aVDr Hook  The Medicine Show  Sharing The Night Together  <NUMBER> PM visit wwwRadioTAGrcomWIYY to TAG this song
p341
aVTime to go find food Someplace
p342
aVbuenos dias de nuevo el alcalde en la TV
p343
aVshe need a fire truck filled with mouthwash
p344
aV<HANDLE> oh yes invite me to conferences so I know what people thinks about me stupid
p345
aVRT <HANDLE> <HANDLE> VOTE EM MARIA CECLIA PARA MELHOR CANTORA <URL>brlists1868finalmelhorcantoranacion 
p346
aVmau pulaaaangg ___ laper capek haus
p347
aV<HANDLE> 
p348
aV<HANDLE> oh thats amazing sista and he sounds great on radio Im sure he do LoL and see ya soon my nutttttttty D
p349
aV 
aV<HANDLE> Omg kids are failing your classthat was the easiest class ever lolwow
p350
aVestoy viendo un directo de jamiroquai hace un fro de muerte tengo los pezones disparados
p351
aV<HANDLE>  oh yes please  is he house trained
p352
aVWhen someone does something good applaud You will make two people happy Samuel Goldwyn <HASHTAG>
p353
aV<HANDLE> i barely have enough nonsense to make it for one so two in a week would be pushing it i need a plan
p354
aVOne birth one death and all the acts of pain and will between Jo Walton rereads Lois Mcmaster Bujolds Barrayar <URL>
p355
aVI rated a YouTube video (5 out of <NUMBER> stars)  Borgore  Saturday Night (Gorestep) <URL>
p356
aVwatching question time like a big fucking nerdsad old fart
p357
aVI Want I want I Want The Golden Ticket ) I Want it )
p358
aV<HANDLE> wut dmv
p359
aVLOM simpose face a Neuchatel Xamax <URL>
p360
aVGots an early day 2moro Uggs Callin it an early nite tweeple
p361
aVATTN all sucka ass maleswho dont posess enuff skill to approach a female correctlyshoot urselvesur a waste sincerely <HANDLE> 
p362
aVFogMist and <NUMBER> F at HartsfieldJacksonAtlanta International Airport GA Winds are Southwest at <NUMBER> MPH (5 KT)   <URL>
p363
aVIts street fam for life we ride to the death we play hard ball so dont cry to the reff I dont know u so please move to the left
p364
aVAwww just saw a friends new baby So sweet and adorable
p365
aV<HANDLE> butthe cake is a lie dontcha know
p366
aV<HANDLE> It ships to the US ArMex address
p367
aVNOW PLAYING Corina  If You Believe <URL>
p368
aV<HANDLE> were going
p369
aVMeatballs Sticks To Movie Menu Top With 246M The Sony animated tale raised its domestic haul to <NUMBER> millio <URL>
p370
aVShit Forgot to charge phone
p371
aVBout to call it a nite
p372
aVIm still at school And Ill be here until 730pm LOL
p373
aV<HANDLE> percebi  kosakos tessalia tessalia tessalia O nunca vi koasko gamo
p374
aVDude did you touch my drum set
p375
aVUnfortunately my sponsor here at NASA is definitely an enabler )
p376
aV<HANDLE> its gonna be greatAA <URL>
p377
aVmy ps im not going to talk about browning i cant be bothered to read the book bloody hell
p378
aVNew Arcade Game Monkey Island SE <URL> <HASHTAG>
p379
aVSarandons Legal Battle Over Ping Pong Club <URL>
p380
aVGmail   <NUMBER>  Gmail   )
p381
aV<HANDLE> hahah i felt a little guilty but i always tell people i cant cook but i give great head
p382
aV Tw
p383
aVThis Twitter Program Will Blow Your Mind <URL> <HANDLE> <HANDLE> <HANDLE> <HANDLE>
p384
aVCheck this video out  Im Just a Baby (Justin Bieber  Baby Parody) <URL>
p385
aV<HANDLE> <NUMBER>  
p386
aVCannot Install  Find Driver for Microsoft 24GHz Transceiver USB <URL>
p387
aV<HANDLE> look for all of the drunks from lastnights Halloween Party that he was at
p388
aV<HANDLE> Scheisse schon wieder rickrolled lol
p389
aVSo exhausted and a bit burdened Going to enjoy girls night out nonetheless Will just have to make it an early quit
p390
aVLoving the yellow touch <HANDLE> looking gorrrrgeous <HASHTAG> love it wen u pull dat sexy facial expression He he
p391
aVR
aVDim view of <NUMBER> memorial <URL>
p392
aV<HANDLE> You are very very cool kisses
p393
aV<HANDLE> spitta da how fly mixtape is mos def flyinn i be producing bro
p394
aV<HANDLE> nhaaaaaw obrigada pah voce que fez
p395
aV<HANDLE> Yeah the NFL has done some pretty huge recruitment for women fans and has apparently also done market research on jerseys
p396
aVMSNBC Stock futures pare gains after GDP revision <URL>
p397
aV<HANDLE> Hola amigo la esperanza es lo ltimo que se pierde Seguir esperando a ver si un rayo le cae y loilumina
p398
aV<HANDLE> wOw wat een service richting t KC Je lijkt Calslaan 16a wel ten tijde van De Brand
p399
aVphoto by <HANDLE> check out her work <URL>
p400
aV<HANDLE> la clase de kylie no la tendra Gaga JAMAS
p401
aVBusiness Finance and Investment News for <NUMBER> <URL>
p402
aV<HANDLE> You do same with your collection <URL>
p403
aV<HANDLE> wait thats a deal I cant refuse kid Ill be there soon just save me a seat on the awesome train kevozilla
p404
aV 
aV<HANDLE> itu foto siapa wa pake krudung geuning
p405
aV<HANDLE> WHAATTTTT I WAS NOMINATED
p406
aVWort des Tages Schneeschmelze
p407
aVRe O inseto mais raro do mundo Simpaticooo <URL>
p408
aV
aVESPN MLB  TB Home Run Bottom 4th  BAL <NUMBER> TB <NUMBER>  B Zobrist homered to left
p409
aV<HANDLE> i definatly will ) u should read the Meredith Gentry series by laurell k hamilton U would like them
p410
aVScratch that next flight delayed for three hours (
p411
aVaposto que vou ficar a madrugada sozinho de novo 
p412
aVAlice In Chains  Check My Brain <URL>
p413
aV<HANDLE> Joe will be the death of me )
p414
aV<HANDLE> lol why
p415
aV<HANDLE> smertefritt om lag ein time
p416
aVHAHAHAHA VOCES NAO MERECEM FALAR NEM COMIGO NEM COM O CORTEZ MEU ANJO HAHAHAHAHAHAHAH
p417
aVSome might say reading Finnegans Wake on such a perfect winters day is a shame too Will look out of the window for inspiration
p418
aV<HANDLE> 
p419
aVJonas brothers rock you guys are amazing singers Sophie from NY
p420
aVThe FA Cup where all men are treated like idiots There is an advert plastered over most of the country at the  <URL>
p421
aV()
p422
aVUrg morning Later rising than I should Now sprint for 8am startARG
p423
aVNow playing ROCK THIS TOWN by STRAY CATS
p424
aVNYC is closing schools before it even starts to snow Weird
p425
aV<HANDLE> samana imo twitavatar oi hahahahah p
p426
aVIts a fact ultrafest has the hottest teens in the planet  God loves me D Eye candy sparkle
p427
aVit is about to HIT THE FAN <HASHTAG>
p428
aV5 Days Off gaat naar maart <URL>
p429
aVI think that was way too much for lunch
p430
aVCheck Galileo in Philly <URL> if you are not able to fly to Florence this summer
p431
aVRT <HANDLE> <HANDLE> hey mama you goin to that show  Fat Cat on the 25th Im pretty sure It sounds fun ARE YOU D
p432
aV<HANDLE> hella close Lol
p433
aVCharter has changed its cable TV channel listings and we have the new lineup here <URL>
p434
aV <URL> <HASHTAG>
p435
aVRT <HANDLE> <HANDLE> <HASHTAG>
p436
aVhoza ur gonna come back with googlie eyes
p437
aVthe ipad is okbut its to big
p438
aV<HANDLE> HmmChicago When I visited there I was approached by a gorgeous man and accosted by a confident homeless man win <NUMBER> mins
p439
aVMsg rcvd <NUMBER> <NUMBER> room temp <NUMBER> light <NUMBER> battery <NUMBER> accelXYZ <NUMBER> <NUMBER> <NUMBER> 
p440
aVHealth care sick days schooling among issues for laborers <URL>
p441
aVso yeah im feeling kinda edgy today guess its cause im sore andhave a headache dante bumped his eye on his toy earlier
p442
aVOh snap Busted <URL>
p443
aVAhead of the Bell More erosion likely in Yahoo 4Q <URL>
p444
aVRT <HANDLE> rt <HANDLE> Dems lied when they said the GDP grew  only grew in the Gov not in Private Sector  Jobs VOTE AGAINST THE DEMS
p445
aV  BEIJOS BRASIL mais tarde tem PAREDONES e eu vou preparar a minha CAIXA DE FOGUETES FUI ZzzzzZZzzZZZZzz <HASHTAG> <HASHTAG> P
p446
aVits a i wanna just chill and watch movies type of day
p447
aV<HASHTAG> you asked me how much I earn on the first date You gon pay for this bill am out
p448
aV<HANDLE> what flavor
p449
aV<HANDLE> Nothing Hun Just Gettin In At Work
p450
aV(402) On the way to the bar I saw some interesting graffiti on a bridge As I got closer I noticed it said Vampires do NOT sparkle
p451
aVskulle g till gymet idag och springa p den dr trampmaskinen med handtag drack folkl och grillade baconlindad varmkorv istllet
p452
aV( Receita de Licor de Laranja <URL>brreceitadelicordelaranjahtml
p453
aVMy plane just landed in boredland via brokeland Mum the money call please
p454
aVRT <HANDLE>    Ladies if u wanna send ur man in2 another womans arms jus close urs (love da <NUMBER> u wit)
p455
aV<HANDLE> if i guess correctly can I go too ) Is it French Laundry
p456
aVyo im chillin just doin it
p457
aV<HANDLE> anders spoel je het toilet even door)
p458
aVIntroduction to Internet Marketing Search Engine Optimization  Product DescriptionThis book explains funda <URL>
p459
aV
aVi dont like rap but i think kid cudi is friggin amazing
p460
aVso i thought my mom was working out cause i heard one of those workout videos on so i walk in and shes just laying down watching it ahaha
p461
aVHoly crap Its just a white screen
p462
aVMorning twitta worldfresh start new day thank god <NUMBER> wakin me up to see it
p463
aV<HANDLE> man the loon tunes are sure coming out of the woodwork on that story
p464
aV
aVAt Yale Lift Trucks of Florida  Georgia we offer a selection of used lift trucks and forklifts for the business on a budget
p465
aV
aV<URL>  Should I cut my hair short Or find a more stylish way to wear it long
p466
aVLimbaughs Hillbilly Heroin <HASHTAG>
p467
aVTwitter
p468
aVFind Jobs  Account Exec Advertising Internet Marketing  Legal  <URL>
p469
aVthetehtypo
p470
aVRT <HANDLE> Thanks to a site called suckuk you can now microwave cake into alarm clock digits FINALLY <URL>  WANT
p471
aVN97Nokia Messaging
p472
aVBut no
p473
aVfailing to create an perspective arrow out of lines in open office and filling it with a color  it simply doesnt work (
p474
aV<HANDLE> rapot gue lumayan naaay haha tp kyknya byk yg ga trima wesss
p475
aVNew pic from tri on Submit url  <URL>
p476
aVdamn i missed the <HASHTAG> <HASHTAG> 
p477
aVconveyor belt of love  new favorite show
p478
aV<HANDLE> Haha you should go But OMG you know the mini platforms in the middle of the dance floor Ayesha fell from it TWICE LMFAO
p479
aVY as camina un Doctorado the grad school experience is universal Cheers <HANDLE>  <HANDLE>  <HANDLE>  <HANDLE> and PhDs everywhere
p480
aVTelemarketing dish network y directv usa Para trabajar en  Lima Per <URL>
p481
aV<HANDLE> how much
p482
aV (10)  (ID ZEROSUM) <URL>
p483
aVnot only do I have one brother but now I got two (
p484
aV<HANDLE> 
p485
aV <HASHTAG> <HASHTAG> <HASHTAG> <HASHTAG>  <URL>
p486
aVRead half an article on Ron Perelman thinking he was Barry Diller Need  to leave the city
p487
aV<HASHTAG> <NUMBER> <URL>
p488
aV<HANDLE> jus a lil homie Where u headed too
p489
aV<HANDLE> 
p490
aV<HANDLE> Bom dia Marcos Rsss
p491
aV<HANDLE> Well see
p492
aVKompascom  <HASHTAG> CRIME STORY  Rp <NUMBER> Juta Uang Palsu Sudah Beredar Dar <URL> <HASHTAG> <HASHTAG>
p493
aVFiling lawsuits as a hobby Hamilton County judge and the Ohio Supremes say Dont think so <URL>
p494
aV<HANDLE> YU LUCKY I DONT PETER ROLL YA SHIT LMAO
p495
aV
aVqueero um corao pra milk  por favor  (<HANDLE> live on <URL>
p496
aVTalking XD
p497
aVOOOH SONO
p498
aVdang it<HASHTAG>s late
p499
aV<HANDLE> te toca salir esquibando duendes y turbas  xD
p500
aVmonituid19 <URL> loaded in <NUMBER> seconds
p501
aVLaughter is the shortest distance between two people Victor Borge <HASHTAG>
p502
aV<HASHTAG> <HASHTAG> <HASHTAG> <HASHTAG> <HASHTAG> <HASHTAG> RT
p503
aV httpjp  <NUMBER> 014212
p504
aVFerienhaus fr <NUMBER> Personen Viareggio einfaches Reihenhaus im Ortszentrum von Viareggio <NUMBER> km vom Zentrum von <URL>
p505
aVI lyk grey <HANDLE> <HANDLE>
p506
aVLoookin At Labor Pains On The Family ChannelLol
p507
aVPhone stolen by <HANDLE>
p508
aVLove this  Sums up what ive been trying to say for the last month <URL>
p509
aV<HANDLE> nee dochter van ed is jarig
p510
aVPotential away tie to Bolton fingers crossed
p511
aVGiving the brother a haircut then getting this Superbowl Sunday started
p512
aVI hate long dark hallways Unfortunately Rapture appears to be made of them
p513
aV<HANDLE> Hey laurenwe got soooo much Snow in Boston huh HAHAgotta love the WeathermanEASIEST JOB EVER
p514
aVouvindo o <HASHTAG> again
p515
aVsomewhere we went wrong we were once so stronng 
p516
aVsolo <NUMBER> dias
p517
aVHappy Thanksgiving  <URL>
p518
aV<HANDLE> are they still living together
p519
aVVamos invadir a La Boate
p520
aVRT <HANDLE> RT <HANDLE> RT <HANDLE> Happy Birthday Drummer <HANDLE>
p521
aV<HANDLE> I agree After Hours is more Jarmusch but NOBODY can do those breathtaking sweeps the way Scorsese does And early steadicam
p522
aV<HANDLE> creeme  q asi sera feliz navidaddd
p523
aVI think i wanna order cinnamon stix
p524
aVPaysandu desgaste fsico preocupa Valtinho Uma das razes para a queda de rendimento tcnico dos bicolores nes <URL>
p525
aVPeanut Processor Ignored Salmonella Tests Knowingly Sold Tainted Products  washingtonpostcom <URL>
p526
aVCLEAN TECH BREAK THROUGH BLOG <URL>
p527
aVPeter Fox bei Mixery Raw Deluxe im Interview <URL>
p528
aVThe Body Shop Cheek  Lip Tint  Review I just love tints I love the lovely but natural color they impart So <URL>
p529
aV<HANDLE> <HANDLE> <HANDLE> <HANDLE> <HANDLE> <HANDLE> <HANDLE> <HANDLE> <HANDLE> <HANDLE> <HANDLE> <HANDLE> <HANDLE> 
p530
aVHappy Bday Have Funn<HANDLE>
p531
aVMaking dinner for grandma )
p532
aV<HANDLE> why keep going to your home got free show
p533
aVDih di lakesgilut gw liat anak main rubik bentuknya segitiga katro rajin amat tuh anak
p534
aV<HANDLE> se voc quiser eu fao uma D
p535
aVIn searching for jobs I found <NUMBER> jobs nearby Black Oak Arkansas
p536
aV<HANDLE> I have had less than four hours sleep thanks to the awesomeness of the Js
p537
aV<HANDLE> My boobies are awesome
p538
aVStill pickin up them damn hats haha Redonkulous
p539
aVHow you selling weight but you got a twitter facebook myspace aim bbm tagg gtalk and a boost feds phone LMAO <HASHTAG>
p540
aVsih
p541
aVBoeuf Bourguignon O nome  complicado mas o preparo  fcil com bacon vinho tinto cogumelo e cebola 8109997
p542
aV <URL>
p543
aV
aV<HANDLE>  But I like Glee )
p544
aVQuem defende o aborto cre em um estado debil que nao se afirma para os ricos e tb nao deve se afirmar para os pobres
p545
aVoffline bye
p546
aVAnd what jst happened on Californication  Me too  Myrtle Beach SC <NUMBER> lmao
p547
aV<HANDLE> w
p548
aV<HANDLE> hahahaha sok gatauuuu d rmh bosen euy dr td main game doang krik mata capek
p549
aVWhat a lame ass night Wish i could have seen my kids today before heading to work
p550
aVcook (lower lonsdale) The District expanded in July and we are busy Really busyWe are in need of <NUMBER> solid exper  <URL>
p551
aV<HANDLE> uhm because youre hot
p552
aV17 hour day Bed tonight will be glorious
p553
aVREC2009 Level2 
p554
aVMichael Jackson  Billie Jean  <NUMBER> AM visit wwwRadioTAGrcomWTUG to TAG this song
p555
aVSearch our online florist directory to buy flower arrangements for any reason Find a florist with this online <URL>
p556
aVDOWNLOAD fresh hot music for the summer <NUMBER> <HANDLE>  <HANDLE>  THE GREEN FLAG Mixtape FREE OF CHARGE GET it NOW wwwreverbnationcomgfe
p557
aV<HANDLE> already left just waiting for my homegirl to get out of class now
p558
aVcall me emotional but never say never by <HANDLE> just made me tear up a little bit Love that song <URL>
p559
aVGot the cutest damn night light Twelve dollars at Fred Meyer
p560
aVJammin to some Led Zeppelin I love me some Bonhams Montreaux
p561
aVi wuldnt b able to live wout mi csy basketball Shme Family wout u guys id b lost
p562
aVWondering why last week no score posted for Mission Valley  I looked at the week <NUMBER> wall and dont Mv with a spot waiting for a score 
p563
aVHello  Feel like I havent tweeted in forever  Getting back into the swing of things after all those days off
p564
aVIh seru ya uber yg baru Otomatis kluar friendlistnya pas ngetik  ihiiiiii Nice nice nice
p565
aVFarmVille Secrets Dominate Farm ville Farmville CheatsTricks Tips<URL>
p566
aVpartiu imigrantes
p567
aV<HANDLE> hi whats going on tonight
p568
aVRT <HANDLE> i wana fixie but my parents wont buy it for me
p569
aVRT <HANDLE> <HANDLE> why is MrG laying in bed with you ltidk hes tired he wont get off not even bribing him with food lol
p570
aV<HANDLE> Yep Figured that out
p571
aVSitting on the Ritz Carlton terrace above the ocean having a drink while watching surfers and the sunsetbeautiful
p572
aVIM NEW IN TWITTER
p573
aVRT <HANDLE> Just saw Temple Grandin on HBO  Claire Daines gives one of the best performances Ive seen in a very long time  
p574
aVGood morning worldAnother day another <NUMBER> (before state  federal taxes insurance Medicare and Christmas club)
p575
aV<HANDLE>   ALICE
p576
aV <HANDLE> <HANDLE> <HANDLE> 
p577
aVRT <HANDLE> And now a plucked headless chicken bridewedding cake <URL> (you know you wanna see this) you do
p578
aVDont piss me off Im running out of places to hide the bodies
p579
aV<HANDLE> 
p580
aVFinally feel sicknessfree work then bday celebration then home to get ready to leave for AC
p581
aV<HANDLE> de nada cuidate igual y te da pork fluXP
p582
aVIts about finished Ive never been at work until 230am before and Im downright disheartened that it had to happen
p583
aVlada <NUMBER> sport coupe resimleri <URL>
p584
aVwell i must say this is exciting stuff i can hardly contain maself here 
p585
aVGood night
p586
aV<HANDLE> Chondroitin has never convincingly proven to have any benefit for arthritis and glucosamine is debatable <URL>
p587
aVNow on Lithium What Do I Have To Do by Stabbing Westward
p588
aVI feel weird
p589
aVso cuteeeee <URL>
p590
aVYo mama she get craaazy
p591
aVIn <NUMBER> the industry was contemplating Will CSS finally have replaced tables for page layout So happy thats settled
p592
aV<HANDLE> Ohhh gatona Ainda no twitamos hj Como assim
p593
aV<HANDLE> Im on campus b lol Im tryna get up with yall I have no clothes on and Im sure yall dont wanna come on campus
p594
aV<HANDLE> Stuckholm
p595
aV<HANDLE> Olha essa banda PontoForsom fino wwwpontofornet  Add ai no msn kandimam2<HANDLE>com (Dan) veja os clipes da banda
p596
aVSam pack up UR stuff I just won the lotteryShall I pack <NUMBER> warm weather or coldWhatever Just so youre out of the house by noon
p597
aV<HANDLE> real talk u a twitter bully and u a hunnie wassup wait dat 
p598
aVchatting at <URL>  <HASHTAG>
p599
aVhey Janet
p600
aVI just entered to win a <NUMBER> Sears gift card from American Home Shield You can win too Follow <HANDLE> and RT <URL>
p601
aV<URL>  <HANDLE> that was fun
p602
aV<HANDLE> yes it does But opera mobile isnt supported
p603
aVjesus you whine like awellworse than a girl
p604
aVHelping Cook Breakfast With My Grandma
p605
aV<HANDLE> thanks
p606
aVLOOK AT TAYLOR SWIFT GOOOO GIRL
p607
aV<HANDLE> kan beda xen kelasnya Gw ngumpul foto yg freeze sm panning Skrg si gw ud di kls korea Hahaha
p608
aV<HANDLE> <HANDLE> yang tugas tik satunya suruh ngapain 
p609
aV<HANDLE> how was the show
p610
aV<HANDLE> hahahaha
p611
aVTwo new tunes in <NUMBER> hours
p612
aVis hungry Heading for delicious bak kut teh in pandan indahleave d worries behind
p613
aVStop Nap time
p614
aVTaylor swift played here tonightcan u believe that show sold out in <NUMBER> mins Lol Disney should give her a show
p615
aV<HANDLE> Im sure hes worth it )
p616
aVWere drinking under the tent on Perrys rooftop Its a downpour outside Its thundering and Micheal Jackson is playing Awesome
p617
aVItu apa deh gikyknya gw tau tp lupa hahaRT <HANDLE> Kangen trio aldyjasonjono <URL>
p618
aV<URL>  Hiking  running battlefield park
p619
aV<HANDLE> mending dengerin ost sang pemimpi semuanyal biar gak luka hahahaha
p620
aV<HANDLE> TEE  DEM ON DA AVE
p621
aVflickr updated Still waaayyyy behind but thats how it goes
p622
aV<HANDLE> <HANDLE> has yet to experience the power of candy leather seats he will learn
p623
aVRT <HANDLE> <HANDLE> I did that day now I dont lol Well POOT u too lmao
p624
aVwwwJMedinaLIVEcom for your unsigned  new tunes Tuesday Listen and Vote
p625
aVCall snooki fat bitch and iwill track u down
p626
aVNME Radio is now playing Renee Loves Losers by LR Rockets
p627
aV<HANDLE> mylf has spoken
p628
aVThe joys of a slow train to bletchley This is not a coded message
p629
aVABG di Padang Hilang Ditelan Gelombang Ingin menyalurkan hobi memancing Lian Faderi (15) warga Bukit Lampu R <URL>
p630
aVAs fotos de Flame  Citron  Os Resistentes   em estreia esta semana <URL>
p631
aV<HANDLE> what are you in the mood for
p632
aV<HANDLE>  mir geht es auch gut )hahaja vorhin das war voll funny ne  D
p633
aVvia <HANDLE>  <HANDLE>
p634
aVMe acaban de llegar los Toys de smupfcom Guapsimos
p635
aVO Vanguarda Comunitria faz uma pausa em suas atividade prometendo voltar logo mais Uma boa madrugada
p636
aVChargers Vs Titans SCORE Current score on the Chargers vs Titans game is <NUMBER> The Chargers vs Titans game <URL>
p637
aVawwwwww u gon make me eCry in this summummubish <HASHTAG> <HANDLE> cuz she reps that Dallas Dopeness
p638
aV<HASHTAG> <HASHTAG>              <URL>
p639
aV<HASHTAG> black n gold  samp sparro
p640
aVYahoo HotJobs Job Posting(s) <URL>
p641
aV<HANDLE> Bienvenida recibe un saludo desde Monterrey NL Mxico
p642
aVBowl forecast Utah BYU are top choices for Poinsettia and Vegas bowls BYU and Utah football players coaches and <URL>
p643
aV<HANDLE> gahahahaha seru iya pasti gw tonton (hueks) hihihi kan gw liat lo dari satelit (lebih)
p644
aVhappy birthday St Michael de Archangel maupay nga patron mga Laoanganon kampay _
p645
aVI is back from school and is excited for the weekend ) I is watching general hospital and I have a feeling this will be a good episode )
p646
aVRT <HANDLE> Im thinkin of getting rid of my Twitter account  I think Im rotting my brain with alot of bullshit idk yetits  
p647
aVRT <HANDLE> berteman sama siapa aja tapi buat sahabat harus pilihpilih
p648
aVToday we celebrate the Feast Day of St Katharine Drexel our founder Mass  noon Join the NO Alumni Chapter Sun March 7<HANDLE>30 for Mass
p649
aV<HANDLE> is at pub waiting for others
p650
aVTeacher Finds Little Girl Wandering <URL>
p651
aVRT <HANDLE> Theres a good chance that Unfinished painting of Utopian Puppeteer has been sold <URL>
p652
aV<HANDLE> SOMOS DUAS e aparentemente essas coisas esto em todo canto agora
p653
aVBob Seger  Turn The Page  <NUMBER> PM visit wwwRadioTAGrcomWLVQ to TAG this song
p654
aV<URL>  Some come in blue
p655
aV<HANDLE> gt_________________gt hands
p656
aVLadies dont let ya coochi get <HASHTAG> bc then dickheads will be scared to battle bc when u open ya legs only hot fiya come out
p657
aVNichts ist liebenswerter als Dummheit die schweigt Karl Heinrich Waggerl
p658
aVMan about to go to work daaaaamn
p659
aVnaranjero En Tijuana <HANDLE> no dejes de ver a  HeavenAC un gran twittero y mejor ciudadano
p660
aV<HANDLE> ()mb
p661
aV<HANDLE> eem no 
p662
aVI always try to remain professional when doing business w folk but when folk are unprofessionalwoo woo
p663
aV<HANDLE> I would agree with that statement
p664
aV<HANDLE> llsnaw jus butt pirate
p665
aV<HANDLE> did you make it over to the warrior family support center
p666
aVcucian <NUMBER> ember gede  woh smangat  jemur smbl dgr musik (music)  <URL>
p667
aV<HANDLE> what was the box set
p668
aV  <URL>
p669
aVKali  Dirty Coeds R US  <URL> <HASHTAG>
p670
aV<HASHTAG> imma call you later knowin damn well i aint gon call u hehe
p671
aV<HANDLE> isnt he the guy recently featured chasing kittens
p672
aV<HASHTAG> adoro retwitar os tweets do <HANDLE>
p673
aVBom dia a todos Mais um dia cheio de Sol da UFV ( calor infernal)
p674
aV<HANDLE> truee lekker tukken dan
p675
aVEm Floripa agora temperatura de <NUMBER> graus
p676
aV<HANDLE> yepp D ily
p677
aVNB DVP Congested From Queen To Beyond YKmills Post <NUMBER> pm Updt <NUMBER> pm
p678
aV<HANDLE> yea yea i kno lol
p679
aVReally GREAT blog entry by <NUMBER> of my pastors <HANDLE>  The Cost of ExcuseMaking  <URL> via <HANDLE>
p680
aVStress Engineer  FDT Job  Bristol Gloucestershire  Vacancy ID  High end aerospace engineering consultancy  <URL>
p681
aV<HANDLE> Are Erin or Andrew online much
p682
aVToday has just been a very <HANDLE> filled day lol
p683
aVLeaders missing at <NUMBER> Dallasarea school districts as students return <URL>
p684
aVintels seems like a good stock to invest indaaannggggidk if i should <HASHTAG><HASHTAG><HASHTAG><HASHTAG><HASHTAG> market<HASHTAG>
p685
aV<HANDLE> blaah you should take a field trip Get some lemonade
p686
aV<HANDLE>  lol thanx feels like the mornin to mei had a long nite
p687
aVFor Sale gtgt Sell Sports Sneakers Basketball Shoes Footwear Shoes Dear friendWe are a trade  <URL>
p688
aVRT <HANDLE> Had a great birthday thank u <HANDLE> <HANDLE> <HANDLE> <HANDLE> <HANDLE> <HANDLE> <HANDLE>
p689
aVTaken  Good movie whod have guessed that Liam Neeson is dead and his daugther actually sees dead people 
p690
aV16 days sober its nuthin Shout out to all my drunk tweeters yall in the buildin I see ur drunk non spelling asses lol
p691
aVisso miley esfrega na cara que agora voce esta com o nick e eu nao xx
p692
aV<HANDLE> lol u couldve hit me up too But nuthin Whats new
p693
aVWell now Im just going to think of that as another AmKrysKryBer moment B teehee
p694
aV<HANDLE> lol boy Go to twitpiccom
p695
aVConclusion of the night White Horse by Taylor Swift fits perfectly with Halloween Two by Rob Zombie
p696
aV 
aVA beautiful day in Pheonix AZ for a Sangin  <URL>
p697
aVVoorbeeld Waarom zoveel aandacht in de media over (schoonheids)idealen van de vrouw maar amper die van de man S
p698
aVHearing alot of Please hold on Please exit through the rear doors San Francisco bus MUNI system
p699
aV<HANDLE> Met een bus gaan joyrijden )
p700
aV<HANDLE> 
p701
aV<HANDLE> cala a boca uahUAhU PS mandei um email pro paintball pq os <NUMBER> tels ngm atende e at agora <NUMBER> respostas
p702
aV<HASHTAG>
p703
aVMy stomach feels fantastic
p704
aVgrt intvu with Todd Zwillich on <HANDLE> re AIG Avail via podcast and reaired 9am est also did story on remittances falling <NUMBER> Mex
p705
aV20020704100 <URL>
p706
aVnossa fui bem pra caramba na prova de NY hoje ironia on
p707
aV<HANDLE> I thought you had an account on macthemes2net XD
p708
aV<HANDLE> ALLEZ LES BLEUS
p709
aVgetting ready to leave yeah yeeahhh
p710
aVDodd Lieberman work to secure <NUMBER> million for Connecticut Air National Guard Senators Chris Dodd (DCT) and J <URL>
p711
aV<HANDLE> amigaa me conte o q rolou na Fazendaperdi hoje
p712
aV<HANDLE> Ga knape2 Loe Djay Btwdah tau blon ada aplikasi BB yg kalo ada gempa (berdasarkan info dr BMG) ntar BBnya bergetar
p713
aVmudanas mudanas
p714
aV<HANDLE> USIAEHOIUSAHEOIUASEHASOIEUHASEIUaaah muito lindas elas 
p715
aV<HANDLE> diem aja lu cing bkin ni hri empet aja dgn tweet lu yg norak hahahaha
p716
aVBe patient
p717
aV<HANDLE> edgar winter free ride
p718
aV
aV<HANDLE> Im liking the sound of you getting through the chapters )
p719
aVAssitindo Beijamin Bolton amm
p720
aVque nadaa D  de onde   (<HANDLE> live on <URL>
p721
aV<HANDLE> LOL I want to meet LT  Gabby Wahh haha Gotta go na gurl Nightyy Sweet dreams
p722
aVLost
p723
aVEn route back to Philly
p724
aVReal Madrid <NUMBER> Million In Debt  The Footie  World Cup and  The Real Madrid CF soccer club has revealed t <URL>
p725
aVWhat up <HANDLE> thanks for following
p726
aVRT <HANDLE> Happy birthday to daddyny atu <HANDLE>
p727
aVMankind must put an end to war or war will put an end to mankind <HASHTAG>
p728
aVLazy Saturday Lounging shopping then out for Stacys birthday )
p729
aVse o Ronaldo tivesse dito isso vamos matar os bambis com certeza seria apenas uma brincadeirinha sem maldade
p730
aV<HASHTAG> mad fucking hyped  everyone send me your gamertags
p731
aV<HANDLE> yeah sorry about that been sorted out already but involved actor dropping at last min
p732
aVdaisy tomorrow eek D x
p733
aVthere certain orgs Ive wanted to join Creative Club and CofC but I find the membership fee  better placed at events like barcamp
p734
aVcant even concentrate
p735
aVNOW PLAYING Jovi Rockwell  Rizzla <URL>
p736
aV
aVRT <HANDLE> Sir we have a dress code at this course <URL>
p737
aVDecline of Western Civilization <NUMBER>  online  <URL> thx <HANDLE>
p738
aV<URL> 
p739
aV  <URL> pixx 
p740
aVI love Western Digital My Passport Essential <NUMBER> GB USB External Hard Drive <URL>
p741
aV<HANDLE> are you drunk
p742
aVToday was our last visit with this CO  I will miss him  What a great speaker
p743
aV<HANDLE> take the day off shawna r  r will help although i know its easier said than done  )
p744
aV
aV<HANDLE> acceeeeeept sis I already add you <URL>
p745
aVWomen who scream are annoying I should walk around with a gun
p746
aV1Xtra Soulja Boy  Sammie  Kiss Me Thru The Phone <URL>
p747
aVCut stress to stop kid headaches The main goal of course is to reduce stress says Kropp That can be achieve <URL>
p748
aV<URL>
p749
aVHome from a beautiful day with fam and friends up in Cocoa Beach Im going to load You Tube video soon Stay tuned
p750
aVil twittercamp  nello stesso giorno di uninaugurazione che devo seguire ma posso sempre far spostare linaugurazione D
p751
aVEnfim gordinho ou no me voy
p752
aV<HANDLE> work shy
p753
aV<HANDLE> whats wrong
p754
aVRT <HANDLE> <HASHTAG> cause Im light skin with long hair shit hate my mommy for that smh
p755
aVRT <HANDLE> STOP TEXTIN ME I CANT RESPOND MOTHERFUCKERS
p756
aV<HANDLE> Try the default  2222
p757
aVAll Questions have been answered Sorry if you didnt get a chance Zoe Questions are every Wednesday times are certain 
p758
aV<HANDLE> have a fab time on <HASHTAG>friends hon You will be ace x
p759
aVLos das de invierno
p760
aVYou Had Sex With <NUMBER> Guys  Huh  iT Was <NUMBER> Not <NUMBER>  One Was A Black Guy He Counts As Two  LMAOO
p761
aV<HANDLE> Nunca fui de tomar partido no baixo todos e vejo qual est mais rpido Fazem uns <NUMBER> meses que estou no Chrome
p762
aVRT <HANDLE> Bitly responde ao Googl <URL>
p763
aV<HASHTAG> Little Nicky
p764
aVArgentinians want Maradonas head <URL> <NUMBER> <URL>
p765
aV<HANDLE>  no adam please no
p766
aV2nd guessingdont know if i wanna do sum light shoppin now or Wenesdat when i get a few mo dollas
p767
aV<HANDLE> u do that lol 
p768
aV   <URL> <HASHTAG>
p769
aVTwitter<URL>
p770
aV<HANDLE> tiduur ivon hha
p771
aVjust voted taylor swift on which celeb looks cute when they cry vote too  <URL>
p772
aV<HANDLE> Thanks
p773
aVRT <HANDLE> Dynamic Pricing Comes to Amazon Cloud <URL> by <HANDLE> (via <HANDLE>)
p774
aV<HANDLE> Oh most definitely  Well have to show you it all tomorrow
p775
aVWeek <NUMBER>  Crossword <URL>
p776
aV<HANDLE> lol no prob
p777
aV<HANDLE> same its funny alex is really pretty
p778
aVInglorious Basterds starts well then goes from bad to worse not convinced  but I must admit it takes a lot to convince me
p779
aVMy Jeans Are Tighter Than Yalls <URL>
p780
aVJustin Bieber tops Twitter hot topics  again <URL>
p781
aV<HANDLE> Answer To Your Question What is <HASHTAG> <URL>
p782
aVRT <HANDLE> Why you should exfoliate every day <URL> (VIDEO)
p783
aVOUR LOVE IS LIKE A SONG )
p784
aV<HANDLE> 
p785
aV<HANDLE> hooh lagian bentar bgt masa cm <NUMBER> hari haha sekalian aja di ancol wgwgwg
p786
aVSuccess Doesnt Just Happen it Starts for Those Who Take ActionDonald Trump  <URL>
p787
aVwere back up and running things look normal well be on watch
p788
aVDid I mention I had a dream about my wedding last night VERY weird a little disturbing but I have some cool ideas for procession music )
p789
aVStudy Businesses Unprepared for Swine Flu Outbreak  KFSM <URL>
p790
aVsitting in a meeting dreaming about christmas go figure
p791
aV<HANDLE>   I love <HANDLE>
p792
aVRT <HANDLE> RT <HANDLE> <NUMBER> Health Lessons in <NUMBER> <URL>
p793
aV<HANDLE> that is insane Way to go
p794
aVYou can tell the news is from Australia UP TO <NUMBER> FINE OR TWO YEARS JAIL FOR KOALA SHOOTER
p795
aV<HANDLE> <HANDLE> <HANDLE> we all know that a fast start means absolutely nothing but damn <HANDLE> didnt get the memo
p796
aV<HANDLE> im about to email you
p797
aVpreciso terminar meu trabalho grrrr
p798
aV
aVI have irn bru WIN
p799
aVIn need of Kitchen Design And Installation near Edinburgh We recommend <URL>
p800
aV  <URL>
p801
aVRT <HANDLE> RT <HANDLE> 
p802
aVTLC  Waterfalls  <NUMBER> AM (visit wwwRadioTAGrcomWMJJ to TAG this song)
p803
aVSmall Business News  SBTV Daily Business News (<URL>
p804
aVDoesnt Mean Anything  Alicia Keys (2009109 2137)
p805
aVDamn my earring is turning green from the chrlorine in the HU pool time to get a new pair
p806
aV<HANDLE> de qu
p807
aV
aVAinda mais sendo de matematica Oh troco chato
p808
aV
aVRT <HANDLE> <HANDLE> acho q o <HANDLE> ia apanhar bonito n <HANDLE> eita
p809
aV<HANDLE> 
p810
aVThe WORLD LIVE  <NUMBER> GMT on September <NUMBER> <NUMBER> The WORLD LIVE  <NUMBER> GMT on September <NUMBER> <NUMBER> <URL> (via <HANDLE>)
p811
aV<HANDLE> <HANDLE>  Eh paixoQuando esto conversando nem respondem as perguntas da gentekkk
p812
aVALL WE ASK is that you PARTY with the <HANDLE> once a MONTH I am not a PROMOTER AUGUST 18th  MidNight we will meet in NYC
p813
aVi have tried to change the stereotypes of persons with disabilities for the last <NUMBER> years in Hollywood  Robert David Hall <HASHTAG>
p814
aVHappy birthday <HASHTAG>
p815
aVabout to go out <URL>
p816
aVKorrigering wwwfcfcfi kan troligtvis sedan ocks RDDAS Ls mera p bloggen  sajten
p817
aVBah Im not allowed to like youStop being so perfectlike
p818
aV()
p819
aV<HASHTAG> <HASHTAG> <HASHTAG>  
p820
aV 1010TIMESLESS  <URL>
p821
aV
aVgo to bed whitney youre drunk
p822
aV<HANDLE> Iphone
p823
aV<HANDLE> Congrats Scott  Awesome
p824
aV<HANDLE> Voc que brisa tirando o cachecol do Paredinho meu hahahaha
p825
aVgoodnight
p826
aVE30HT  <URL> E30HT <URL>
p827
aV<HANDLE> Yo did you make that call
p828
aVPhoto qoohm <URL>
p829
aV<HANDLE> haha ngebolang kemana pula  lg ga enak badan males keluar huehue si akang ga malem mingguan neh 
p830
aV<HANDLE>  least its diet I love food  I feel like I switched brains wgrant bc I was actually laughin when he offered me salad
p831
aVLONG LIVE THE FUCKING CAR CRASHED HEARTS  lt3
p832
aV<HANDLE>  AYISIUAYSUI eu naos ei oq eu te dou  sdifuysiudyfi
p833
aVRT <HANDLE> green mile is startin for the dutchies rtl <NUMBER> what a great movieltjohn coffey jusk like the drink but not the same
p834
aV<HANDLE> No chica que va a engordar como te dije anotate es mas la proxima vez q valla pa san cristobal voy a llevar varios kilos d
p835
aV<URL>br  De olho no imposto site deveras infomrativo
p836
aVFind all what no searches  gt
p837
aV<HANDLE> I feelya pain
p838
aVTTeam Work <URL> (via <HANDLE>)
p839
aV78 <URL>
p840
aVBlack dress pants + dog fluff + cat fluff  Fail
p841
aVHow WeightLoss Blogging Can Help You Reach Your Goals <URL>
p842
aVIts curling time
p843
aVThe internet is really really greaaat (for porn) Ive got a fast connection so I dont have to waaaait (for porn) <URL> 
p844
aVThe follies which a man regrets most in his life are those which he didnt commit when he had the opportunity  Helen Rowland
p845
aV<HANDLE> I will do as I plaese
p846
aV<HANDLE> TV media exploitation How dare you say You mean talking about  Warner stocking shelves every Sunday isnt overthetop Hahaha
p847
aVLututku lecet huu
p848
aV<HANDLE> 20091125
p849
aV<HANDLE> euu tbm ( um iphone e um macbook
p850
aVJumpain coass praktekpraktek <URL>
p851
aVWell a lot of good cars are Japanese but when were driving far I need my baby I need my baby next to me <HASHTAG>
p852
aVBritish Police Choose The Lexus ISF  Web Exclusive They are set to replace their current fleet of Subaru Impr <URL>
p853
aVWelche <HASHTAG> Lsung setzt ihr unter <HASHTAG> ein <HASHTAG> <HASHTAG>
p854
aV
aVat Sushi Deli <NUMBER> in SD with <HANDLE>
p855
aVwho did the steelers play tonight
p856
aVRT <HANDLE>  RT <HANDLE> Angrily Demands McChrystal Testify on Afghansitan  Oops must be time for his diaper changeSen Vitter
p857
aVBrb
p858
aV<HANDLE> Veronique seus presentes chegaram Obrigada gracias thank you so much S no sei ainda dizer obrigada em dinamarqus )
p859
aVNatalrn
p860
aV<HANDLE> 
p861
aVdemi deh gue laper banget
p862
aV<HANDLE> I love that song too
p863
aV
aV<HANDLE>  <NUMBER>  
p864
aVAVACADAS and ankles it is
p865
aV<HANDLE> LOL WHO KNOWS TAKE IT AS A COMPLIMENT
p866
aV<HANDLE> Buenas Noches Besos
p867
aVRT <HANDLE> Check out my book on <HASHTAG> movement Foreword by <HANDLE> In stores and online <URL> <HASHTAG>
p868
aVTim McGraw  My Next Thirty Years <URL>
p869
aVBeenie Man  Dude (w Ms Thing) <URL>
p870
aV<HANDLE> yeah but youre going to skip <NUMBER> hour of classSo its <NUMBER> am to <NUMBER> pmlol
p871
aVFOLLOW <HANDLE> <HANDLE> <HANDLE> <HANDLE> <HANDLE> <HANDLE> <HANDLE> <HANDLE> <HANDLE> <HANDLE> <HANDLE> 8
p872
aVwow woke up to see people listing me on superwenesday to folllowi dont know what that IS but THANK yougoshi am amazed)
p873
aV<HANDLE> acho que vou ficar com o conflito super nada a ver que o google me deu mesmo P
p874
aVwere aaaall in thiiis togeeether 
p875
aVLos Angeles Food Best Burger in LA I have to agree with you on the mccormick  <URL>
p876
aVNew blog post VIDEO Daniel Radcliffe Encounters Crazed SuperFan <URL>
p877
aVhum torta de banana com filme das irmas Olsen na sesso da tarde uhuu
p878
aV
aVRT <HANDLE> Love or heart symbol  lt3 read less than <NUMBER> its <NUMBER> me and you Athena <HASHTAG>
p879
aVJust heard Peyton Manning swearnot gonna lie i laughed  guess they cant censor football games
p880
aV<URL>  Umas so meio nada a ver
p881
aV
aV<HANDLE> oh no That sounds so painful How long r u out
p882
aVO Srginho at de bailarina arraza <HASHTAG> <HASHTAG>
p883
aV<HANDLE> I know <NUMBER> its in <NUMBER> though they said the wrong year Im planning on going seriously omg
p884
aV<HANDLE> you know you wanna try it grin
p885
aV<HANDLE> darn (
p886
aVtoday from japan my friend came to wuxi
p887
aVPokerface Olivia  Poker Face live HQ Author GAGASPONGE Keywords <URL>
p888
aV<HANDLE> The kind you have to dilute to taste
p889
aVNew PRod ad with Eric Koston and Kobe is sick
p890
aVBig win for Arsenal
p891
aVAnyone up for some stumbling or digging Ill return the favor <URL>
p892
aVI smell BS <URL>
p893
aV<HANDLE> AAAAAAA o dudu foi no justin  DDDDD e eu perdi isso nao creio morri
p894
aV<HANDLE> finally picked up the <NUMBER> Beers of Winter All great tasting but Big Moose Ale the best  <HASHTAG> <HASHTAG> <HASHTAG>
p895
aV<HANDLE> lool e os canalizadores ser a mesma regra
p896
aVUghhh im soooo gonna forget to pack somethingI kno itttt gt
p897
aV<HANDLE> awwwww we gotta do this together some time
p898
aVCompre seu ingresso nos pontos credenciados  a sua garantia de acesso aos jogos <URL>
p899
aVayam ayam ku
p900
aVA Taste Of Honey  Boogie Oogie Oogie  Top <NUMBER> of all Time <HANDLE> <HANDLE> <HANDLE> <HANDLE> <HANDLE>  <URL>
p901
aVUncle Kracker  Follow Me  <NUMBER> PM visit wwwRadioTAGrcomKRTI to TAG this song
p902
aV<HANDLE> its not a job since you dont pay me for it
p903
aVSunday Funday w <HANDLE> and <HANDLE> <NUMBER> drink max or death is imminent
p904
aV<HANDLE> I WANTTTTTTTTTTTTTTTTTT ________
p905
aVMy throat is killing me and I have to go into work Wah wah cry cry
p906
aVBeatlegeous is amazing  haha P
p907
aV<HANDLE> well said <HANDLE> aajkal our love birds r busy wid each other ) <HANDLE> <HANDLE>
p908
aV<HANDLE> Roteiro Turismo  uma agncia linda de Jesus que Timteo me apresentou Fica aqui no Floresta
p909
aVVingana das mulheres hahaah RT <HANDLE> Hackearam  qq porra aconteceu com o Papo de Homem <URL>br
p910
aVa Maratona ta acabando jah jah feriassssssssssssss
p911
aVMe too RT <HANDLE> What I want for Xmas (when he turns <NUMBER> in Feb) <URL>
p912
aVThe dogmatist within is always worse than the enemy without SJ Gould
p913
aV<HANDLE> yeeeoooo
p914
aVRe Im new here and this is my car <URL>  Kansas GXP
p915
aVMean Girls is on at <NUMBER> Im excited
p916
aVlong live playbill radio lt3
p917
aV
aV<HANDLE> 
p918
aVRT <HANDLE> Plugin WPBan  o melhor plugin ever pra Wordpress Nego vai postando flood em todos os posts do seu blog como uma mqui 
p919
aVPIC COMENT FER PIC COMMENT  I AM IN MY UNDIES (
p920
aVGinuwine  in those jeans
p921
aVI feel so happy for my bro mr and mrs barros YEE
p922
aVMolly the Vanian Fan Les Rita Mitsouko  Andy French Version <URL>
p923
aV<HANDLE> pode D
p924
aV<HANDLE> It was great your entrance in El hormiguero todayhaha such faces
p925
aV         ))
p926
aVOh joy im at work again least i have a lunch but i fear that my knees have froze and i cant get up
p927
aVPekena air Sarsi Kesidang keluaran usahawan bumiputra <HANDLE>
p928
aVSocial media tech marketing conferences February  Socialmedia  <URL>
p929
aVUploadings my new videos on wwwmyspacecomvaleriomattei
p930
aV <URL>
p931
aV<HANDLE> 
p932
aVUma mensagem foi deixada no FClube da caroline <URL>
p933
aV<HANDLE> procastination once Blame the thing Procastinating twice Blame yourself
p934
aV 
aVDOL I need some AvatarSig help please <URL> DOL
p935
aV<HANDLE> Aww oh okaaay
p936
aV<HANDLE> I hope he stays safe over there  Tell him I said thank you for serving  When will he be home
p937
aVreached level <NUMBER> in <HASHTAG> <URL>
p938
aV10P
p939
aVJenny Kerr  Tijuana Waltz
p940
aV<HANDLE>                         UI  HCI       
p941
aVI am not a morning person Oof
p942
aV<HANDLE> por que dices eso no entendi
p943
aVHahahahaha Itu kan gara2 lw berdua nyett RT <HANDLE> <HANDLE> masih bagus sebangku ber <NUMBER> dari pada yg di depan ber <NUMBER> hwhwhw
p944
aVToby Keith  American Ride  <NUMBER> AM visit wwwRadioTAGrcomKXKT to TAG this song
p945
aVI think that my body hates me Granted I do punish it Frequently But still not so much as others I know Ugh
p946
aVIm hearin Janies Got A Gun now the next one is The Other Side both are great Im anxious to hear Voodoo Medicine Man it rocks
p947
aVGuitarHeroVanHalenUSAPROPERWiiHaZMaT  Download And Share Here  wwwrlsgameorg
p948
aVKollision im Weltall <URL>
p949
aV<HASHTAG> most of u fuck boys know yall suck pussy n fuck batty lol abomination
p950
aVuraunt
p951
aVTwitter()
p952
aVDoesnt want to get up at 8am tomorrow I usually dont go to sleep until about 4am
p953
aVyessssss i dont bust into a mad sweat while driving to work
p954
aVNieuwe aanbieding Maandag <NUMBER> mei <NUMBER> (<URL> <URL> bestel hier <HASHTAG> <HASHTAG> <HASHTAG>
p955
aVjaajja ) RT <HANDLE> PAYOLA PA LA NENA LA MADRE AL Q NO LA SIGA <HANDLE> <HANDLE> <HANDLE>  <HANDLE>  <HANDLE>  <HANDLE>
p956
aV
aVStage <NUMBER> at Burgos will likely have some good action 153k w 3x cat <NUMBER> climbs before the finish which is also a cat <NUMBER> climb Get some Tom D
p957
aVFriday sunny Temp 25C17C
p958
aVOlivia is a great argument for prochoice Retroactively <HASHTAG>
p959
aV giddens   p30khcb
p960
aV<URL>
p961
aVNow Playing johnny brzoza  imobilized on <URL>FMcom
p962
aVNow on 1st Wave Kiss Them For Me by Siouxsie amp The Banshees
p963
aVwhy helloe theree  ehhhh  tooday islept like alllll DAY  ifuckinn miss him ohdee ) Dunknow how much more of this ican take x 
p964
aV<HANDLE> daily prophet might be a bunch of prats but i could try and write some truth into it )
p965
aV
aVKotaku A Couple Of Games In The Giving Spirit News  Reality Gaps got two games in the giving spirit <URL>
p966
aVndak lo sia  ( sepi pasaran  ( RT <HANDLE> <HANDLE> baa sincia ko Banyak angpau
p967
aVVery happy to learn that <HANDLE> and her husband made a surprise visit for my and <HANDLE>s birthday
p968
aV<HASHTAG> Follow These Great People <HANDLE> <HANDLE> <HANDLE> <HANDLE>
p969
aVMerry Christmas all Hope you all get what you wanted If not I will have it
p970
aV<HANDLE> No clue but it is bugging me haha So far all Im getting from looking  it on trending topics that it has <NUMBER> do with a Mac pro
p971
aVpaparazzi  lady gaga ( aucustic version )  to linda  meldels o 
p972
aV<HANDLE> always flattering
p973
aVhmn que meiga eu k n
p974
aVFOLLOW gtgt <HANDLE> obrigada <HASHTAG>
p975
aVSo this guy seems to be about his business gt <HANDLE> thanks for the follow
p976
aVOMW TO HARLEM
p977
aV<URL> 
p978
aVEdie Brickell  New Bohemians  What I Am  <NUMBER> AM visit wwwRadioTAGrcomWWLB to TAG this song
p979
aV<HANDLE> Theres also flaxseed oil supplements Also omega3 peanut butter eggs margarine etc All mercury free
p980
aVa dormir ahora si
p981
aV<HANDLE> HEY SIS I NEED A LIL SCHOOLIN ON ll this computer stuff lol
p982
aV<HANDLE> muchas graciaaaaaaaaaaaas xD
p983
aVbeautiful losers anyone <URL>
p984
aVLol I peeped it too they both nasty RT <HANDLE> Why is Papa Johns  Dominos pizza going at it yo these commercials are funny
p985
aVidentity crisis those are subaru stars <URL>
p986
aVRemembering Annecy in France  I have been there several times and the TdF TT is happening there today  good luck Lance
p987
aVwanna follo talent <HANDLE> my song witter when i got writers bock <HANDLE> my motivation and marcello my pr expert their all i need
p988
aV<HANDLE> YEAH Cant wait til u hit this coast
p989
aVFacing global local challenges New dynamics for economic development  Daily Mirror <URL>
p990
aV<HANDLE> shut up lol thats why you still at work
p991
aVDinner and Lost with the Templetons
p992
aVWaiting for a disney magical express bus to the airport
p993
aVJigsaw Falling Into Place  Radiohead
p994
aV14
p995
aV<HANDLE> essa  pra vc <URL>
p996
aVWholesale Store  Wholesale store offers free drop shipping of quality wholesale products with free drop <URL>
p997
aV<HANDLE> can you Please follow <HANDLE> She is beautiful and she would be really happylt3
p998
aV<HANDLE> ) 
p999
aVt na CL COMU  (amo muito)
p1000
aVCool RT <HANDLE> James McMurtrys Live in Europe CDDVD out today Dont forget the equally live Live in Aught Three 
p1001
aV10 Amazing Avatar movie Photoshop Tutorials <URL> Photoshopwebsitecom
p1002
aVoh shit twitter works from my phone again Political rants STAND UP
p1003
aVMay the energies of <NUMBER> today help us connect to our hearts desires  intuition with ease  joy
p1004
aVNapoleon Total War Campaigns of Coalition Trailer HD <URL>
p1005
aVQLD  Jail after school cleaver attack <URL>
p1006
aVAutoridades ministeriales en AgroShowRoom 2009<URL>
p1007
aVrt <HANDLE> I am very proud of President Obama He is the best US President of my lifetime (via <HANDLE>) the bar is pretty low
p1008
aVI havent had a coke today    waiting for the inevitable headache to set in soon Oh and why the heck is Twitter so slow
p1009
aV<HANDLE> niceeee i wont be at the fest though
p1010
aV<HANDLE> LOL one of my friends said blackberries were wack<HANDLE> is stuck on the touch or some other inferior phone
p1011
aV<URL>  So 12h30 mais je suis fire de moi Et jadore ce putain de chat 
p1012
aV<HANDLE> YAYYYY ) im exciteddd ) and i HOPEEE he sees it )
p1013
aV<HANDLE> I always dug her Coke problem  all Sadly Ive had my own issues and it just adds to the mystery Sad though
p1014
aVWhen I went to bed I was starving  Now I am not  All pillows and Joy accounted for
p1015
aV
aVThe Beach Boys  Surfer Girl <URL>
p1016
aV90 percent of the game is half mental  Tim Sylvia
p1017
aV
aV
aV2825Mon Nov <NUMBER> <NUMBER> CLST 2009
p1018
aVFunk agora  oficialmente cultura arrume uma cachorra e comece a cuidar do patrimnio kkkkkk  <URL>
p1019
aV<HANDLE> i luv demis song catch me and here we go again and i luv ur song overrated
p1020
aV<HANDLE> <HANDLE> night
p1021
aVAcabo de completar Onde vai estar daqui a <NUMBER> anos e meu resultado foi Na Faculdade (ainda) Experimente <URL>
p1022
aVTwitter CEOs Wife Tweeting While in Labor <URL>
p1023
aV<HANDLE> Amanh eu flo bo dia pra vc  )
p1024
a.